Product: MDK-ARM Lite 5.10
Component: ARM Compiler 5.04 update 1 (build 49)
Tool: armlink [5040049]

==============================================================================

Section Cross References

    startup.o(RESET) refers to startup.o(STACK) for __initial_sp
    startup.o(RESET) refers to startup.o(.text) for Reset_Handler
    startup.o(RESET) refers to gpio.o(i.GPIO_IRQHandler) for GPIO_IRQHandler
    startup.o(RESET) refers to analog.o(i.COMPARATOR0_IRQHandler) for COMPARATOR0_IRQHandler
    startup.o(RESET) refers to analog.o(i.COMPARATOR1_IRQHandler) for COMPARATOR1_IRQHandler
    startup.o(RESET) refers to lib.o(i.BLE_IRQHandler) for BLE_IRQHandler
    startup.o(RESET) refers to sleep.o(i.OSC_EN_IRQHandler) for OSC_EN_IRQHandler
    startup.o(RESET) refers to adc.o(i.ADC_IRQHandler) for ADC_IRQHandler
    startup.o(RESET) refers to uart.o(i.UART0_TX_IRQHandler) for UART0_TX_IRQHandler
    startup.o(RESET) refers to uart.o(i.UART0_RX_IRQHandler) for UART0_RX_IRQHandler
    startup.o(RESET) refers to timer.o(i.TIMER0_IRQHandler) for TIMER0_IRQHandler
    startup.o(RESET) refers to timer.o(i.TIMER1_IRQHandler) for TIMER1_IRQHandler
    startup.o(RESET) refers to timer.o(i.TIMER2_IRQHandler) for TIMER2_IRQHandler
    startup.o(RESET) refers to timer.o(i.TIMER3_IRQHandler) for TIMER3_IRQHandler
    startup.o(RESET) refers to wdt.o(i.WDT_IRQHandler) for WDT_IRQHandler
    startup.o(.text) refers to entry.o(.ARM.Collect$$$$00000000) for __main
    app_main.o(i.assert_err) refers to printfa.o(i.__0printf) for __2printf
    app_main.o(i.assert_warn) refers to printfa.o(i.__0printf) for __2printf
    app_main.o(i.main) refers to lib.o(i.dc_dc_enable) for dc_dc_enable
    app_main.o(i.main) refers to lib.o(i.plf_init) for plf_init
    app_main.o(i.main) refers to system.o(i.SystemInit) for SystemInit
    app_main.o(i.main) refers to lib.o(i.ble_init) for ble_init
    app_main.o(i.main) refers to app_env.o(i.app_init) for app_init
    app_main.o(i.main) refers to usr_design.o(i.usr_init) for usr_init
    app_main.o(i.main) refers to sleep.o(i.sleep_init) for sleep_init
    app_main.o(i.main) refers to sleep.o(i.wakeup_by_sleep_timer) for wakeup_by_sleep_timer
    app_main.o(i.main) refers to lib.o(i.ke_schedule) for ke_schedule
    app_main.o(i.main) refers to sleep.o(i.usr_sleep) for usr_sleep
    app_main.o(i.main) refers to lib.o(i.ble_sleep) for ble_sleep
    app_main.o(i.main) refers to led.o(i.led_set) for led_set
    app_main.o(i.main) refers to sleep.o(i.enter_sleep) for enter_sleep
    app_main.o(i.main) refers to prf_utils.o(i.prf_init) for prf_init
    app_main.o(i.main) refers to prf_utils.o(i.prf_dispatch_disconnect) for prf_dispatch_disconnect
    app_main.o(i.main) refers to app_main.o(.bss) for .bss
    app_main.o(i.main) refers to sleep.o(i.sleep_cb) for sleep_cb
    system.o(i.SystemInit) refers to system.o(i.timer_clock_off) for timer_clock_off
    system.o(i.SystemInit) refers to system.o(i.uart_clock_off) for uart_clock_off
    system.o(i.SystemInit) refers to system.o(i.spi_clock_off) for spi_clock_off
    system.o(i.SystemInit) refers to syscon.o(i.syscon_set_sysclk_src) for syscon_set_sysclk_src
    system.o(i.SystemInit) refers to syscon.o(i.syscon_set_ahb_clk) for syscon_set_ahb_clk
    system.o(i.SystemInit) refers to syscon.o(i.syscon_set_ble_clk) for syscon_set_ble_clk
    system.o(i.SystemInit) refers to syscon.o(i.syscon_set_apb_clk) for syscon_set_apb_clk
    system.o(i.SystemInit) refers to syscon.o(i.syscon_set_timer_clk) for syscon_set_timer_clk
    system.o(i.SystemInit) refers to syscon.o(i.syscon_set_usart_clk) for syscon_set_usart_clk
    system.o(i.SystemInit) refers to gpio.o(i.gpio_init) for gpio_init
    system.o(i.SystemInit) refers to led.o(i.led_init) for led_init
    system.o(i.SystemInit) refers to button.o(i.button_init) for button_init
    system.o(i.SystemInit) refers to uart.o(i.uart_init) for uart_init
    system.o(i.SystemInit) refers to usr_design.o(i.gpio_interrupt_callback) for gpio_interrupt_callback
    usr_design.o(i.app_button_timer_handler) refers to gpio.o(i.gpio_read_pin) for gpio_read_pin
    usr_design.o(i.app_button_timer_handler) refers to app_main.o(i.assert_err) for assert_err
    usr_design.o(i.app_button_timer_handler) refers to app_gap.o(i.app_gap_adv_stop_req) for app_gap_adv_stop_req
    usr_design.o(i.app_button_timer_handler) refers to app_util.o(i.app_get_local_service_flag) for app_get_local_service_flag
    usr_design.o(i.app_button_timer_handler) refers to app_util.o(i.app_set_scan_rsp_data) for app_set_scan_rsp_data
    usr_design.o(i.app_button_timer_handler) refers to app_util.o(i.app_set_adv_data) for app_set_adv_data
    usr_design.o(i.app_button_timer_handler) refers to app_gap.o(i.app_gap_adv_start_req) for app_gap_adv_start_req
    usr_design.o(i.app_button_timer_handler) refers to app_env.o(.bss) for app_env
    usr_design.o(i.app_char_config_desc_change) refers to usr_design.o(i.app_clear_stored_meas) for app_clear_stored_meas
    usr_design.o(i.app_char_config_desc_change) refers to usr_design.o(i.app_send_stored_meas) for app_send_stored_meas
    usr_design.o(i.app_char_config_desc_change) refers to usr_design.o(i.start_measure_temperature) for start_measure_temperature
    usr_design.o(i.app_char_config_desc_change) refers to usr_design.o(i.app_interm_temp_stable_status_reset) for app_interm_temp_stable_status_reset
    usr_design.o(i.app_char_config_desc_change) refers to app_htpt.o(i.app_htpt_measurement_intv_send) for app_htpt_measurement_intv_send
    usr_design.o(i.app_char_config_desc_change) refers to app_htpt_task.o(.data) for app_htpt_env
    usr_design.o(i.app_char_config_desc_change) refers to usr_design.o(.data) for .data
    usr_design.o(i.app_clear_stored_meas) refers to usr_design.o(.data) for .data
    usr_design.o(i.app_event_adc_sample_cmp_handler) refers to analog.o(i.temp_sensor_enable) for temp_sensor_enable
    usr_design.o(i.app_event_adc_sample_cmp_handler) refers to usr_design.o(i.app_temp_meas_indicate) for app_temp_meas_indicate
    usr_design.o(i.app_event_adc_sample_cmp_handler) refers to usr_design.o(i.app_interm_temp_notify) for app_interm_temp_notify
    usr_design.o(i.app_event_adc_sample_cmp_handler) refers to usr_design.o(.data) for .data
    usr_design.o(i.app_gap_adv_intv_update_timer_handler) refers to usr_design.o(i.usr_led1_set) for usr_led1_set
    usr_design.o(i.app_gap_adv_intv_update_timer_handler) refers to app_util.o(i.app_get_local_service_flag) for app_get_local_service_flag
    usr_design.o(i.app_gap_adv_intv_update_timer_handler) refers to app_util.o(i.app_set_scan_rsp_data) for app_set_scan_rsp_data
    usr_design.o(i.app_gap_adv_intv_update_timer_handler) refers to app_util.o(i.app_set_adv_data) for app_set_adv_data
    usr_design.o(i.app_gap_adv_intv_update_timer_handler) refers to app_gap.o(i.app_gap_adv_start_req) for app_gap_adv_start_req
    usr_design.o(i.app_gap_adv_intv_update_timer_handler) refers to app_env.o(.bss) for app_env
    usr_design.o(i.app_get_celsius_temperature) refers to printfa.o(i.__0printf) for __2printf
    usr_design.o(i.app_get_celsius_temperature) refers to dflti.o(.text) for __aeabi_i2d
    usr_design.o(i.app_get_celsius_temperature) refers to ddiv.o(.text) for __aeabi_ddiv
    usr_design.o(i.app_get_celsius_temperature) refers to dadd.o(.text) for __aeabi_dadd
    usr_design.o(i.app_get_celsius_temperature) refers to dmul.o(.text) for __aeabi_dmul
    usr_design.o(i.app_get_celsius_temperature) refers to dfixi.o(.text) for __aeabi_d2iz
    usr_design.o(i.app_get_celsius_temperature) refers to usr_design.o(.data) for .data
    usr_design.o(i.app_get_celsius_temperature) refers to analog.o(.data) for TEMP_OFFSET
    usr_design.o(i.app_get_imeas_notify_data) refers to usr_design.o(i.app_get_celsius_temperature) for app_get_celsius_temperature
    usr_design.o(i.app_get_imeas_notify_data) refers to dflti.o(.text) for __aeabi_i2d
    usr_design.o(i.app_get_imeas_notify_data) refers to ddiv.o(.text) for __aeabi_ddiv
    usr_design.o(i.app_get_imeas_notify_data) refers to printfa.o(i.__0printf) for __2printf
    usr_design.o(i.app_get_meas_indicate_data) refers to usr_design.o(i.app_get_celsius_temperature) for app_get_celsius_temperature
    usr_design.o(i.app_get_meas_indicate_data) refers to bletime.o(i.qn_time_get) for qn_time_get
    usr_design.o(i.app_get_meas_indicate_data) refers to dflti.o(.text) for __aeabi_i2d
    usr_design.o(i.app_get_meas_indicate_data) refers to ddiv.o(.text) for __aeabi_ddiv
    usr_design.o(i.app_get_meas_indicate_data) refers to printfa.o(i.__0printf) for __2printf
    usr_design.o(i.app_htpt_idle_connection_timeout_timer_handler) refers to printfa.o(i.__0printf) for __2printf
    usr_design.o(i.app_htpt_idle_connection_timeout_timer_handler) refers to app_gap.o(i.app_gap_discon_req) for app_gap_discon_req
    usr_design.o(i.app_htpt_idle_connection_timeout_timer_handler) refers to usr_design.o(.data) for .data
    usr_design.o(i.app_htpt_idle_connection_timeout_timer_handler) refers to app_htpt_task.o(.data) for app_htpt_env
    usr_design.o(i.app_htpt_period_meas_timer_handler) refers to app_main.o(i.assert_err) for assert_err
    usr_design.o(i.app_htpt_period_meas_timer_handler) refers to uidiv.o(.text) for __aeabi_uidivmod
    usr_design.o(i.app_htpt_period_meas_timer_handler) refers to usr_design.o(i.start_measure_temperature) for start_measure_temperature
    usr_design.o(i.app_htpt_period_meas_timer_handler) refers to usr_design.o(.data) for .data
    usr_design.o(i.app_htpt_period_meas_timer_handler) refers to app_htpt_task.o(.data) for app_htpt_env
    usr_design.o(i.app_interm_temp_notify) refers to usr_design.o(i.app_get_imeas_notify_data) for app_get_imeas_notify_data
    usr_design.o(i.app_interm_temp_notify) refers to usr_design.o(i.app_is_interm_temp_stable) for app_is_interm_temp_stable
    usr_design.o(i.app_interm_temp_notify) refers to usr_design.o(i.app_temp_meas_indicate) for app_temp_meas_indicate
    usr_design.o(i.app_interm_temp_notify) refers to app_htpt.o(i.app_htpt_temp_send) for app_htpt_temp_send
    usr_design.o(i.app_interm_temp_notify) refers to usr_design.o(.data) for .data
    usr_design.o(i.app_interm_temp_notify) refers to app_htpt_task.o(.data) for app_htpt_env
    usr_design.o(i.app_interm_temp_stable_status_reset) refers to usr_design.o(.data) for .data
    usr_design.o(i.app_is_interm_temp_stable) refers to printfa.o(i.__0printf) for __2printf
    usr_design.o(i.app_is_interm_temp_stable) refers to usr_design.o(.data) for .data
    usr_design.o(i.app_led_timer_handler) refers to led.o(i.led_get) for led_get
    usr_design.o(i.app_led_timer_handler) refers to led.o(i.led_set) for led_set
    usr_design.o(i.app_led_timer_handler) refers to usr_design.o(.data) for .data
    usr_design.o(i.app_param_update) refers to usr_design.o(i.usr_led1_set) for usr_led1_set
    usr_design.o(i.app_param_update) refers to app_gap.o(i.app_gap_param_update_req) for app_gap_param_update_req
    usr_design.o(i.app_send_stored_meas) refers to printfa.o(i.__0printf) for __2printf
    usr_design.o(i.app_send_stored_meas) refers to app_gap.o(i.app_gap_discon_req) for app_gap_discon_req
    usr_design.o(i.app_send_stored_meas) refers to app_htpt.o(i.app_htpt_temp_send) for app_htpt_temp_send
    usr_design.o(i.app_send_stored_meas) refers to usr_design.o(.data) for .data
    usr_design.o(i.app_send_stored_meas) refers to app_htpt_task.o(.data) for app_htpt_env
    usr_design.o(i.app_set_idle_connection) refers to usr_design.o(.data) for .data
    usr_design.o(i.app_start_adv) refers to app_util.o(i.app_get_local_service_flag) for app_get_local_service_flag
    usr_design.o(i.app_start_adv) refers to app_util.o(i.app_set_scan_rsp_data) for app_set_scan_rsp_data
    usr_design.o(i.app_start_adv) refers to app_util.o(i.app_set_adv_data) for app_set_adv_data
    usr_design.o(i.app_start_adv) refers to app_gap.o(i.app_gap_adv_start_req) for app_gap_adv_start_req
    usr_design.o(i.app_start_adv) refers to app_htpt_task.o(.data) for app_htpt_env
    usr_design.o(i.app_start_adv) refers to app_env.o(.bss) for app_env
    usr_design.o(i.app_store_meas_fifo_in) refers to usr_design.o(.data) for .data
    usr_design.o(i.app_stored_meas_indicate) refers to usr_design.o(i.app_store_meas_fifo_in) for app_store_meas_fifo_in
    usr_design.o(i.app_task_msg_hdl) refers to app_util.o(i.app_get_role) for app_get_role
    usr_design.o(i.app_task_msg_hdl) refers to usr_design.o(i.app_param_update) for app_param_update
    usr_design.o(i.app_task_msg_hdl) refers to usr_design.o(i.app_set_idle_connection) for app_set_idle_connection
    usr_design.o(i.app_task_msg_hdl) refers to usr_design.o(i.app_char_config_desc_change) for app_char_config_desc_change
    usr_design.o(i.app_task_msg_hdl) refers to bletime.o(i.qn_time_init) for qn_time_init
    usr_design.o(i.app_task_msg_hdl) refers to bletime.o(i.qn_time_set) for qn_time_set
    usr_design.o(i.app_task_msg_hdl) refers to usr_design.o(i.usr_led1_set) for usr_led1_set
    usr_design.o(i.app_task_msg_hdl) refers to printfa.o(i.__0printf) for __2printf
    usr_design.o(i.app_task_msg_hdl) refers to usr_design.o(i.app_send_stored_meas) for app_send_stored_meas
    usr_design.o(i.app_task_msg_hdl) refers to usr_design.o(.data) for .data
    usr_design.o(i.app_task_msg_hdl) refers to usr_design.o(.constdata) for .constdata
    usr_design.o(i.app_task_msg_hdl) refers to app_htpt_task.o(.data) for app_htpt_env
    usr_design.o(i.app_temp_meas_indicate) refers to usr_design.o(i.app_get_meas_indicate_data) for app_get_meas_indicate_data
    usr_design.o(i.app_temp_meas_indicate) refers to usr_design.o(i.app_store_meas_fifo_in) for app_store_meas_fifo_in
    usr_design.o(i.app_temp_meas_indicate) refers to usr_design.o(i.app_send_stored_meas) for app_send_stored_meas
    usr_design.o(i.app_temp_meas_indicate) refers to usr_design.o(i.app_start_adv) for app_start_adv
    usr_design.o(i.app_temp_meas_indicate) refers to app_htpt_task.o(.data) for app_htpt_env
    usr_design.o(i.app_temp_meas_indicate) refers to usr_design.o(.data) for .data
    usr_design.o(i.gpio_interrupt_callback) refers to usr_design.o(i.usr_button1_cb) for usr_button1_cb
    usr_design.o(i.start_measure_temperature) refers to analog.o(i.temp_sensor_enable) for temp_sensor_enable
    usr_design.o(i.start_measure_temperature) refers to adc.o(i.adc_init) for adc_init
    usr_design.o(i.start_measure_temperature) refers to adc.o(i.adc_read) for adc_read
    usr_design.o(i.start_measure_temperature) refers to usr_design.o(i.adc_sample_complete_callback) for adc_sample_complete_callback
    usr_design.o(i.start_measure_temperature) refers to usr_design.o(.data) for .data
    usr_design.o(i.usr_button1_cb) refers to lib.o(i.ble_ext_wakeup_allow) for ble_ext_wakeup_allow
    usr_design.o(i.usr_init) refers to app_main.o(i.assert_err) for assert_err
    usr_design.o(i.usr_init) refers to usr_design.o(i.app_event_button1_press_handler) for app_event_button1_press_handler
    usr_design.o(i.usr_init) refers to usr_design.o(i.app_event_adc_sample_cmp_handler) for app_event_adc_sample_cmp_handler
    usr_design.o(i.usr_led1_set) refers to led.o(i.led_set) for led_set
    usr_design.o(i.usr_led1_set) refers to usr_design.o(.data) for .data
    usr_design.o(i.usr_sleep_restore) refers to uart.o(i.uart_init) for uart_init
    app_util.o(i.app_add_bonded_dev) refers to memcpya.o(.text) for __aeabi_memcpy
    app_util.o(i.app_add_bonded_dev) refers to app_env.o(.bss) for app_env
    app_util.o(i.app_clear_local_service_flag) refers to app_env.o(.bss) for app_env
    app_util.o(i.app_create_server_service_DB) refers to app_htpt.o(i.app_htpt_create_db) for app_htpt_create_db
    app_util.o(i.app_create_server_service_DB) refers to app_diss.o(i.app_diss_create_db) for app_diss_create_db
    app_util.o(i.app_create_server_service_DB) refers to app_htpt_task.o(.data) for app_htpt_env
    app_util.o(i.app_create_server_service_DB) refers to app_diss_task.o(.data) for app_diss_env
    app_util.o(i.app_enable_server_service) refers to app_htpt.o(i.app_htpt_enable_req) for app_htpt_enable_req
    app_util.o(i.app_enable_server_service) refers to app_diss.o(i.app_diss_enable_req) for app_diss_enable_req
    app_util.o(i.app_enable_server_service) refers to app_htpt_task.o(.data) for app_htpt_env
    app_util.o(i.app_enable_server_service) refers to app_diss_task.o(.data) for app_diss_env
    app_util.o(i.app_find_bonded_dev) refers to app_env.o(.bss) for app_env
    app_util.o(i.app_get_bd_addr_by_conhdl) refers to memcpya.o(.text) for __aeabi_memcpy
    app_util.o(i.app_get_bd_addr_by_conhdl) refers to app_env.o(.bss) for app_env
    app_util.o(i.app_get_bond_nb) refers to app_env.o(.bss) for app_env
    app_util.o(i.app_get_bond_status) refers to app_env.o(.bss) for app_env
    app_util.o(i.app_get_conhdl_by_bdaddr) refers to app_main.o(i.assert_err) for assert_err
    app_util.o(i.app_get_conhdl_by_bdaddr) refers to app_env.o(.bss) for app_env
    app_util.o(i.app_get_conhdl_by_idx) refers to app_util.o(i.app_get_link_status_by_idx) for app_get_link_status_by_idx
    app_util.o(i.app_get_conhdl_by_idx) refers to app_env.o(.bss) for app_env
    app_util.o(i.app_get_link_status_by_idx) refers to app_env.o(.bss) for app_env
    app_util.o(i.app_get_lk_sec_status) refers to app_util.o(i.app_find_bonded_dev) for app_find_bonded_dev
    app_util.o(i.app_get_lk_sec_status) refers to app_env.o(.bss) for app_env
    app_util.o(i.app_get_role) refers to app_env.o(.bss) for app_env
    app_util.o(i.app_i_to_array) refers to uidiv.o(.text) for __aeabi_uidivmod
    app_util.o(i.app_init_local_smp_key) refers to memcpya.o(.text) for __aeabi_memcpy
    app_util.o(i.app_init_local_smp_key) refers to app_smp.o(i.app_smpm_set_key_req) for app_smpm_set_key_req
    app_util.o(i.app_init_local_smp_key) refers to app_env.o(.bss) for app_env
    app_util.o(i.app_set_adv_data) refers to strcpy.o(.text) for strcpy
    app_util.o(i.app_set_adv_data) refers to app_env.o(.bss) for app_env
    app_util.o(i.app_set_link_status_by_conhdl) refers to memcpya.o(.text) for __aeabi_memcpy
    app_util.o(i.app_set_link_status_by_conhdl) refers to app_util.o(i.app_get_bd_addr_by_conhdl) for app_get_bd_addr_by_conhdl
    app_util.o(i.app_set_link_status_by_conhdl) refers to memseta.o(.text) for __aeabi_memclr4
    app_util.o(i.app_set_link_status_by_conhdl) refers to app_env.o(.bss) for app_env
    app_util.o(i.app_set_role) refers to app_env.o(.bss) for app_env
    app_util.o(i.app_set_scan_rsp_data) refers to app_env.o(.bss) for app_env
    app_env.o(i.app_init) refers to memseta.o(.text) for __aeabi_memclr4
    app_env.o(i.app_init) refers to app_util.o(i.app_set_adv_data) for app_set_adv_data
    app_env.o(i.app_init) refers to app_util.o(i.app_set_scan_rsp_data) for app_set_scan_rsp_data
    app_env.o(i.app_init) refers to app_env.o(i.app_smp_init) for app_smp_init
    app_env.o(i.app_init) refers to app_util.o(i.app_get_local_service_flag) for app_get_local_service_flag
    app_env.o(i.app_init) refers to app_task.o(i.task_app_desc_register) for task_app_desc_register
    app_env.o(i.app_init) refers to app_sys.o(i.app_uart_init) for app_uart_init
    app_env.o(i.app_init) refers to app_env.o(.bss) for .bss
    app_env.o(i.app_init) refers to app_htpt_task.o(.data) for app_htpt_env
    app_env.o(i.app_init) refers to app_diss_task.o(.data) for app_diss_env
    app_env.o(i.app_smp_init) refers to memcpya.o(.text) for __aeabi_memcpy4
    app_env.o(i.app_smp_init) refers to app_env.o(.bss) for .bss
    app_printf.o(i.eaddr) refers to app_printf.o(.data) for .data
    app_printf.o(i.iaddr) refers to idiv.o(.text) for __aeabi_idivmod
    app_printf.o(i.iaddr) refers to app_printf.o(.data) for .data
    app_printf.o(i.number) refers to uidiv.o(.text) for __aeabi_uidivmod
    app_printf.o(i.number) refers to app_printf.o(.data) for .data
    app_printf.o(i.qsprintf) refers to app_printf.o(i.skip_atoi) for skip_atoi
    app_printf.o(i.qsprintf) refers to app_printf.o(i.iaddr) for iaddr
    app_printf.o(i.qsprintf) refers to app_printf.o(i.eaddr) for eaddr
    app_printf.o(i.qsprintf) refers to app_printf.o(i.number) for number
    app_printf.o(i.qtrace) refers to printfa.o(i.__0printf) for __2printf
    app_printf.o(.data) refers to app_printf.o(.conststring) for .conststring
    app_task.o(i.task_app_desc_register) refers to app_task.o(.constdata) for .constdata
    app_task.o(i.task_app_desc_register) refers to app_task.o(.data) for .data
    app_task.o(.constdata) refers to bletime.o(i.app_sys_time_check_timer_handler) for app_sys_time_check_timer_handler
    app_task.o(.constdata) refers to usr_design.o(i.app_led_timer_handler) for app_led_timer_handler
    app_task.o(.constdata) refers to usr_design.o(i.app_gap_adv_intv_update_timer_handler) for app_gap_adv_intv_update_timer_handler
    app_task.o(.constdata) refers to usr_design.o(i.app_button_timer_handler) for app_button_timer_handler
    app_task.o(.constdata) refers to app_gap_task.o(i.app_gap_reset_req_cmp_handler) for app_gap_reset_req_cmp_handler
    app_task.o(.constdata) refers to app_gap_task.o(i.app_gap_set_sec_req_cmp_evt_handler) for app_gap_set_sec_req_cmp_evt_handler
    app_task.o(.constdata) refers to app_gap_task.o(i.app_gap_read_ver_req_cmp_evt_handler) for app_gap_read_ver_req_cmp_evt_handler
    app_task.o(.constdata) refers to app_gap_task.o(i.app_gap_read_bdaddr_req_cmp_evt_handler) for app_gap_read_bdaddr_req_cmp_evt_handler
    app_task.o(.constdata) refers to app_gap_task.o(i.app_gap_ready_evt_handler) for app_gap_ready_evt_handler
    app_task.o(.constdata) refers to app_gap_task.o(i.app_gap_set_devname_req_cmp_evt_handler) for app_gap_set_devname_req_cmp_evt_handler
    app_task.o(.constdata) refers to app_gap_task.o(i.app_gap_adv_req_cmp_evt_handler) for app_gap_adv_req_cmp_evt_handler
    app_task.o(.constdata) refers to app_gap_task.o(i.app_gap_param_update_resp_handler) for app_gap_param_update_resp_handler
    app_task.o(.constdata) refers to app_gap_task.o(i.app_gap_set_privacy_req_cmp_handler) for app_gap_set_privacy_req_cmp_handler
    app_task.o(.constdata) refers to app_gap_task.o(i.app_gap_change_param_req_cmp_handler) for app_gap_change_param_req_cmp_handler
    app_task.o(.constdata) refers to app_gap_task.o(i.app_gap_set_mode_req_cmp_evt_handler) for app_gap_set_mode_req_cmp_evt_handler
    app_task.o(.constdata) refers to app_gap_task.o(i.app_gap_le_create_conn_req_cmp_evt_handler) for app_gap_le_create_conn_req_cmp_evt_handler
    app_task.o(.constdata) refers to app_gap_task.o(i.app_gap_discon_cmp_evt_handler) for app_gap_discon_cmp_evt_handler
    app_task.o(.constdata) refers to app_gap_task.o(i.app_gap_bond_req_ind_handler) for app_gap_bond_req_ind_handler
    app_task.o(.constdata) refers to app_gap_task.o(i.app_gap_bond_req_cmp_ind_handler) for app_gap_bond_req_cmp_ind_handler
    app_task.o(.constdata) refers to app_gap_task.o(i.app_gap_set_random_add_req_cmp_handler) for app_gap_set_random_add_req_cmp_handler
    app_task.o(.constdata) refers to app_gap_task.o(i.app_gatt_resource_access_req_handler) for app_gatt_resource_access_req_handler
    app_task.o(.constdata) refers to app_smp_task.o(i.app_smpm_set_key_cfm_handler) for app_smpm_set_key_cfm_handler
    app_task.o(.constdata) refers to app_smp_task.o(i.app_smpc_key_ind_handler) for app_smpc_key_ind_handler
    app_task.o(.constdata) refers to app_smp_task.o(i.app_smpc_tk_req_ind_handler) for app_smpc_tk_req_ind_handler
    app_task.o(.constdata) refers to app_smp_task.o(i.app_smpc_ltk_req_ind_handler) for app_smpc_ltk_req_ind_handler
    app_task.o(.constdata) refers to app_smp_task.o(i.app_smpc_irk_req_ind_handler) for app_smpc_irk_req_ind_handler
    app_task.o(.constdata) refers to app_smp_task.o(i.app_smpc_chk_bd_addr_req_ind_handler) for app_smpc_chk_bd_addr_req_ind_handler
    app_task.o(.constdata) refers to app_smp_task.o(i.app_smpc_sec_started_ind_handler) for app_smpc_sec_started_ind_handler
    app_task.o(.constdata) refers to app_smp_task.o(i.app_smpc_timeout_evt_handler) for app_smpc_timeout_evt_handler
    app_task.o(.constdata) refers to app_htpt_task.o(i.app_htpt_create_db_cfm_handler) for app_htpt_create_db_cfm_handler
    app_task.o(.constdata) refers to app_htpt_task.o(i.app_htpt_disable_ind_handler) for app_htpt_disable_ind_handler
    app_task.o(.constdata) refers to app_htpt_task.o(i.app_htpt_error_ind_handler) for app_htpt_error_ind_handler
    app_task.o(.constdata) refers to app_htpt_task.o(i.app_htpt_temp_send_cfm_handler) for app_htpt_temp_send_cfm_handler
    app_task.o(.constdata) refers to app_htpt_task.o(i.app_htpt_meas_intv_chg_ind_handler) for app_htpt_meas_intv_chg_ind_handler
    app_task.o(.constdata) refers to app_htpt_task.o(i.app_htpt_cfg_indntf_ind_handler) for app_htpt_cfg_indntf_ind_handler
    app_task.o(.constdata) refers to usr_design.o(i.app_htpt_period_meas_timer_handler) for app_htpt_period_meas_timer_handler
    app_task.o(.constdata) refers to usr_design.o(i.app_htpt_idle_connection_timeout_timer_handler) for app_htpt_idle_connection_timeout_timer_handler
    app_task.o(.constdata) refers to app_diss_task.o(i.app_diss_create_db_cfm_handler) for app_diss_create_db_cfm_handler
    app_task.o(.constdata) refers to app_diss_task.o(i.app_diss_error_ind_handler) for app_diss_error_ind_handler
    app_task.o(.constdata) refers to app_task.o(.constdata) for app_default_state
    app_gap.o(i.app_gap_adv_start_req) refers to memcpya.o(.text) for __aeabi_memcpy
    app_gap.o(i.app_gap_bond_req) refers to memcpya.o(.text) for __aeabi_memcpy
    app_gap.o(i.app_gap_bond_req) refers to app_env.o(.bss) for app_env
    app_gap.o(i.app_gap_param_update_req) refers to memcpya.o(.text) for __aeabi_memcpy
    app_gap.o(i.app_gap_security_req) refers to app_util.o(i.app_get_conhdl_by_bdaddr) for app_get_conhdl_by_bdaddr
    app_gap.o(i.app_gap_security_req) refers to app_util.o(i.app_find_bonded_dev) for app_find_bonded_dev
    app_gap.o(i.app_gap_security_req) refers to app_util.o(i.app_get_role) for app_get_role
    app_gap.o(i.app_gap_security_req) refers to app_smp.o(i.app_smpc_start_enc_req) for app_smpc_start_enc_req
    app_gap.o(i.app_gap_security_req) refers to app_gap.o(i.app_gap_bond_req) for app_gap_bond_req
    app_gap.o(i.app_gap_security_req) refers to app_env.o(.bss) for app_env
    app_gap.o(i.app_gap_set_devname_req) refers to memcpya.o(.text) for __aeabi_memcpy
    app_gap.o(i.app_gap_set_random_addr_req) refers to memcpya.o(.text) for __aeabi_memcpy
    app_gap.o(i.app_gap_unpair_req) refers to memcpya.o(.text) for __aeabi_memcpy
    app_gap_task.o(i.app_correct_rssi) refers to dflti.o(.text) for __aeabi_i2d
    app_gap_task.o(i.app_correct_rssi) refers to dmul.o(.text) for __aeabi_dmul
    app_gap_task.o(i.app_correct_rssi) refers to dadd.o(.text) for __aeabi_dadd
    app_gap_task.o(i.app_correct_rssi) refers to dfixi.o(.text) for __aeabi_d2iz
    app_gap_task.o(i.app_device_setup) refers to app_gap.o(i.app_gap_set_sec_req) for app_gap_set_sec_req
    app_gap_task.o(i.app_gap_adv_req_cmp_evt_handler) refers to printfa.o(i.__0printf) for __2printf
    app_gap_task.o(i.app_gap_adv_req_cmp_evt_handler) refers to usr_design.o(i.app_task_msg_hdl) for app_task_msg_hdl
    app_gap_task.o(i.app_gap_bond_req_cmp_ind_handler) refers to printfa.o(i.__0printf) for __2printf
    app_gap_task.o(i.app_gap_bond_req_cmp_ind_handler) refers to app_gap_task.o(i.__ARM_common_switch8) for __ARM_common_switch8
    app_gap_task.o(i.app_gap_bond_req_cmp_ind_handler) refers to app_util.o(i.app_add_bonded_dev) for app_add_bonded_dev
    app_gap_task.o(i.app_gap_bond_req_cmp_ind_handler) refers to usr_design.o(i.app_task_msg_hdl) for app_task_msg_hdl
    app_gap_task.o(i.app_gap_bond_req_cmp_ind_handler) refers to app_gap_task.o(.conststring) for .conststring
    app_gap_task.o(i.app_gap_bond_req_cmp_ind_handler) refers to app_env.o(.bss) for app_env
    app_gap_task.o(i.app_gap_bond_req_ind_handler) refers to app_util.o(i.app_get_conhdl_by_idx) for app_get_conhdl_by_idx
    app_gap_task.o(i.app_gap_bond_req_ind_handler) refers to app_gap.o(i.app_gap_bond_resp) for app_gap_bond_resp
    app_gap_task.o(i.app_gap_bond_req_ind_handler) refers to printfa.o(i.__0printf) for __2printf
    app_gap_task.o(i.app_gap_bond_req_ind_handler) refers to app_env.o(.bss) for app_env
    app_gap_task.o(i.app_gap_bond_req_ind_handler) refers to app_gap_task.o(.conststring) for .conststring
    app_gap_task.o(i.app_gap_change_param_req_cmp_handler) refers to printfa.o(i.__0printf) for __2printf
    app_gap_task.o(i.app_gap_change_param_req_cmp_handler) refers to usr_design.o(i.app_task_msg_hdl) for app_task_msg_hdl
    app_gap_task.o(i.app_gap_change_param_req_cmp_handler) refers to app_gap_task.o(.conststring) for .conststring
    app_gap_task.o(i.app_gap_discon_cmp_evt_handler) refers to usr_design.o(i.app_task_msg_hdl) for app_task_msg_hdl
    app_gap_task.o(i.app_gap_discon_cmp_evt_handler) refers to printfa.o(i.__0printf) for __2printf
    app_gap_task.o(i.app_gap_discon_cmp_evt_handler) refers to app_util.o(i.app_get_bd_addr_by_conhdl) for app_get_bd_addr_by_conhdl
    app_gap_task.o(i.app_gap_discon_cmp_evt_handler) refers to app_util.o(i.app_set_link_status_by_conhdl) for app_set_link_status_by_conhdl
    app_gap_task.o(i.app_gap_discon_cmp_evt_handler) refers to app_util.o(i.app_enable_server_service) for app_enable_server_service
    app_gap_task.o(i.app_gap_le_create_conn_req_cmp_evt_handler) refers to printfa.o(i.__0printf) for __2printf
    app_gap_task.o(i.app_gap_le_create_conn_req_cmp_evt_handler) refers to app_util.o(i.app_set_role) for app_set_role
    app_gap_task.o(i.app_gap_le_create_conn_req_cmp_evt_handler) refers to app_util.o(i.app_set_link_status_by_conhdl) for app_set_link_status_by_conhdl
    app_gap_task.o(i.app_gap_le_create_conn_req_cmp_evt_handler) refers to app_util.o(i.app_enable_server_service) for app_enable_server_service
    app_gap_task.o(i.app_gap_le_create_conn_req_cmp_evt_handler) refers to usr_design.o(i.app_task_msg_hdl) for app_task_msg_hdl
    app_gap_task.o(i.app_gap_param_update_resp_handler) refers to printfa.o(i.__0printf) for __2printf
    app_gap_task.o(i.app_gap_param_update_resp_handler) refers to usr_design.o(i.app_task_msg_hdl) for app_task_msg_hdl
    app_gap_task.o(i.app_gap_read_bdaddr_req_cmp_evt_handler) refers to printfa.o(i.__0printf) for __2printf
    app_gap_task.o(i.app_gap_read_bdaddr_req_cmp_evt_handler) refers to app_util.o(i.app_create_server_service_DB) for app_create_server_service_DB
    app_gap_task.o(i.app_gap_read_bdaddr_req_cmp_evt_handler) refers to app_util.o(i.app_init_local_smp_key) for app_init_local_smp_key
    app_gap_task.o(i.app_gap_read_bdaddr_req_cmp_evt_handler) refers to usr_design.o(i.app_task_msg_hdl) for app_task_msg_hdl
    app_gap_task.o(i.app_gap_read_ver_req_cmp_evt_handler) refers to app_gap.o(i.app_gap_read_bdaddr_req) for app_gap_read_bdaddr_req
    app_gap_task.o(i.app_gap_read_ver_req_cmp_evt_handler) refers to usr_design.o(i.app_task_msg_hdl) for app_task_msg_hdl
    app_gap_task.o(i.app_gap_ready_evt_handler) refers to app_gap.o(i.app_gap_set_sec_req) for app_gap_set_sec_req
    app_gap_task.o(i.app_gap_ready_evt_handler) refers to usr_design.o(i.app_task_msg_hdl) for app_task_msg_hdl
    app_gap_task.o(i.app_gap_reset_req_cmp_handler) refers to usr_design.o(i.app_task_msg_hdl) for app_task_msg_hdl
    app_gap_task.o(i.app_gap_set_devname_req_cmp_evt_handler) refers to printfa.o(i.__0printf) for __2printf
    app_gap_task.o(i.app_gap_set_devname_req_cmp_evt_handler) refers to usr_design.o(i.app_task_msg_hdl) for app_task_msg_hdl
    app_gap_task.o(i.app_gap_set_mode_req_cmp_evt_handler) refers to usr_design.o(i.app_task_msg_hdl) for app_task_msg_hdl
    app_gap_task.o(i.app_gap_set_mode_req_cmp_evt_handler) refers to printfa.o(i.__0printf) for __2printf
    app_gap_task.o(i.app_gap_set_privacy_req_cmp_handler) refers to printfa.o(i.__0printf) for __2printf
    app_gap_task.o(i.app_gap_set_random_add_req_cmp_handler) refers to printfa.o(i.__0printf) for __2printf
    app_gap_task.o(i.app_gap_set_sec_req_cmp_evt_handler) refers to app_gap.o(i.app_gap_read_ver_req) for app_gap_read_ver_req
    app_gap_task.o(i.app_gap_set_sec_req_cmp_evt_handler) refers to usr_design.o(i.app_task_msg_hdl) for app_task_msg_hdl
    app_smp.o(i.app_smpc_chk_bd_addr_req_rsp) refers to memcpya.o(.text) for __aeabi_memcpy
    app_smp.o(i.app_smpc_irk_req_rsp) refers to memcpya.o(.text) for __aeabi_memcpy
    app_smp.o(i.app_smpc_ltk_req_rsp) refers to memcpya.o(.text) for __aeabi_memcpy
    app_smp.o(i.app_smpc_start_enc_req) refers to memcpya.o(.text) for __aeabi_memcpy
    app_smp.o(i.app_smpc_tk_req_rsp) refers to memcpya.o(.text) for __aeabi_memcpy
    app_smp.o(i.app_smpm_set_key_req) refers to memcpya.o(.text) for __aeabi_memcpy
    app_smp_task.o(i.app_smpc_chk_bd_addr_req_ind_handler) refers to app_util.o(i.app_get_lk_sec_status) for app_get_lk_sec_status
    app_smp_task.o(i.app_smpc_chk_bd_addr_req_ind_handler) refers to app_smp.o(i.app_smpc_chk_bd_addr_req_rsp) for app_smpc_chk_bd_addr_req_rsp
    app_smp_task.o(i.app_smpc_chk_bd_addr_req_ind_handler) refers to printfa.o(i.__0printf) for __2printf
    app_smp_task.o(i.app_smpc_chk_bd_addr_req_ind_handler) refers to app_smp_task.o(.conststring) for .conststring
    app_smp_task.o(i.app_smpc_irk_req_ind_handler) refers to printfa.o(i.__0printf) for __2printf
    app_smp_task.o(i.app_smpc_irk_req_ind_handler) refers to app_util.o(i.app_get_bond_nb) for app_get_bond_nb
    app_smp_task.o(i.app_smpc_irk_req_ind_handler) refers to memcpya.o(.text) for __aeabi_memcpy
    app_smp_task.o(i.app_smpc_irk_req_ind_handler) refers to app_util.o(i.app_get_bond_status) for app_get_bond_status
    app_smp_task.o(i.app_smpc_irk_req_ind_handler) refers to app_smp.o(i.app_smpc_irk_req_rsp) for app_smpc_irk_req_rsp
    app_smp_task.o(i.app_smpc_irk_req_ind_handler) refers to app_env.o(.bss) for app_env
    app_smp_task.o(i.app_smpc_key_ind_handler) refers to printfa.o(i.__0printf) for __2printf
    app_smp_task.o(i.app_smpc_key_ind_handler) refers to memcpya.o(.text) for __aeabi_memcpy
    app_smp_task.o(i.app_smpc_key_ind_handler) refers to app_env.o(.bss) for app_env
    app_smp_task.o(i.app_smpc_ltk_req_ind_handler) refers to printfa.o(i.__0printf) for __2printf
    app_smp_task.o(i.app_smpc_ltk_req_ind_handler) refers to app_util.o(i.app_find_bonded_dev) for app_find_bonded_dev
    app_smp_task.o(i.app_smpc_ltk_req_ind_handler) refers to app_util.o(i.app_get_role) for app_get_role
    app_smp_task.o(i.app_smpc_ltk_req_ind_handler) refers to memcpya.o(.text) for __aeabi_memcpy
    app_smp_task.o(i.app_smpc_ltk_req_ind_handler) refers to app_smp.o(i.app_smpc_ltk_req_rsp) for app_smpc_ltk_req_rsp
    app_smp_task.o(i.app_smpc_ltk_req_ind_handler) refers to app_env.o(.bss) for app_env
    app_smp_task.o(i.app_smpc_sec_started_ind_handler) refers to printfa.o(i.__0printf) for __2printf
    app_smp_task.o(i.app_smpc_sec_started_ind_handler) refers to usr_design.o(i.app_task_msg_hdl) for app_task_msg_hdl
    app_smp_task.o(i.app_smpc_sec_started_ind_handler) refers to app_smp_task.o(.conststring) for .conststring
    app_smp_task.o(i.app_smpc_timeout_evt_handler) refers to printfa.o(i.__0printf) for __2printf
    app_smp_task.o(i.app_smpc_timeout_evt_handler) refers to usr_design.o(i.app_task_msg_hdl) for app_task_msg_hdl
    app_smp_task.o(i.app_smpc_timeout_evt_handler) refers to app_env.o(.bss) for app_env
    app_smp_task.o(i.app_smpc_tk_req_ind_handler) refers to printfa.o(i.__0printf) for __2printf
    app_smp_task.o(i.app_smpc_tk_req_ind_handler) refers to atoi.o(.text) for atoi
    app_smp_task.o(i.app_smpc_tk_req_ind_handler) refers to app_util.o(i.app_i_to_array) for app_i_to_array
    app_smp_task.o(i.app_smpc_tk_req_ind_handler) refers to app_smp.o(i.app_smpc_tk_req_rsp) for app_smpc_tk_req_rsp
    app_smp_task.o(i.app_smpc_tk_req_ind_handler) refers to app_env.o(.bss) for app_env
    app_smp_task.o(i.app_smpm_set_key_cfm_handler) refers to app_gap.o(i.app_gap_set_bondable_mode_req) for app_gap_set_bondable_mode_req
    app_htpt_task.o(i.app_htpt_cfg_indntf_ind_handler) refers to usr_design.o(i.app_task_msg_hdl) for app_task_msg_hdl
    app_htpt_task.o(i.app_htpt_create_db_cfm_handler) refers to app_util.o(i.app_clear_local_service_flag) for app_clear_local_service_flag
    app_htpt_task.o(i.app_htpt_disable_ind_handler) refers to usr_design.o(i.app_task_msg_hdl) for app_task_msg_hdl
    app_htpt_task.o(i.app_htpt_disable_ind_handler) refers to app_htpt_task.o(.data) for .data
    app_htpt_task.o(i.app_htpt_error_ind_handler) refers to printfa.o(i.__0printf) for __2printf
    app_htpt_task.o(i.app_htpt_meas_intv_chg_ind_handler) refers to printfa.o(i.__0printf) for __2printf
    app_htpt_task.o(i.app_htpt_meas_intv_chg_ind_handler) refers to usr_design.o(i.app_task_msg_hdl) for app_task_msg_hdl
    app_htpt_task.o(i.app_htpt_meas_intv_chg_ind_handler) refers to app_htpt_task.o(.data) for .data
    app_htpt_task.o(i.app_htpt_temp_send_cfm_handler) refers to usr_design.o(i.app_task_msg_hdl) for app_task_msg_hdl
    app_htpt_task.o(.data) refers to app_env.o(.bss) for app_env
    app_diss.o(i.app_set_char_val_req) refers to memcpya.o(.text) for __aeabi_memcpy
    app_diss_task.o(i.app_diss_create_db_cfm_handler) refers to app_util.o(i.app_clear_local_service_flag) for app_clear_local_service_flag
    app_diss_task.o(i.app_diss_create_db_cfm_handler) refers to app_diss.o(i.app_set_char_val_req) for app_set_char_val_req
    app_diss_task.o(i.app_diss_create_db_cfm_handler) refers to app_diss_task.o(.data) for .data
    app_diss_task.o(.data) refers to app_env.o(.bss) for app_env
    prf_utils.o(i.prf_init) refers to htpt.o(i.htpt_init) for htpt_init
    prf_utils.o(i.prf_init) refers to diss.o(i.diss_init) for diss_init
    htpt.o(i.htpt_compute_att_table) refers to htpt.o(.bss) for .bss
    htpt.o(i.htpt_disable) refers to htpt.o(.bss) for .bss
    htpt.o(i.htpt_get_valid_rge_offset) refers to htpt.o(.bss) for .bss
    htpt.o(i.htpt_init) refers to memseta.o(.text) for __aeabi_memclr
    htpt.o(i.htpt_init) refers to htpt_task.o(i.task_htpt_desc_register) for task_htpt_desc_register
    htpt.o(i.htpt_init) refers to htpt.o(.bss) for .bss
    htpt.o(i.htpt_pack_temp_value) refers to prf_utils.o(i.prf_pack_date_time) for prf_pack_date_time
    htpt.o(i.htpt_pack_temp_value) refers to memseta.o(.text) for __aeabi_memclr
    htpt.o(i.htpt_temp_send_cfm_send) refers to htpt.o(.bss) for .bss
    htpt.o(.constdata) refers to htpt.o(.constdata) for htpt_hlth_therm_svc
    htpt.o(.constdata) refers to htpt.o(.constdata) for htpt_temp_meas_char
    htpt.o(.constdata) refers to htpt.o(.constdata) for htpt_temp_type_char
    htpt.o(.constdata) refers to htpt.o(.constdata) for htpt_interm_temp_char
    htpt.o(.constdata) refers to htpt.o(.constdata) for htpt_meas_intv_char
    htpt_task.o(i.gap_discon_cmp_evt_handler) refers to htpt.o(i.htpt_disable) for htpt_disable
    htpt_task.o(i.gap_discon_cmp_evt_handler) refers to htpt.o(.bss) for htpt_env
    htpt_task.o(i.gatt_handle_value_cfm_handler) refers to htpt.o(i.htpt_temp_send_cfm_send) for htpt_temp_send_cfm_send
    htpt_task.o(i.gatt_notify_cmp_evt_handler) refers to htpt.o(i.htpt_temp_send_cfm_send) for htpt_temp_send_cfm_send
    htpt_task.o(i.gatt_write_cmd_ind_handler) refers to htpt.o(i.htpt_get_valid_rge_offset) for htpt_get_valid_rge_offset
    htpt_task.o(i.gatt_write_cmd_ind_handler) refers to htpt.o(.bss) for htpt_env
    htpt_task.o(i.htpt_create_db_req_handler) refers to htpt.o(i.htpt_compute_att_table) for htpt_compute_att_table
    htpt_task.o(i.htpt_create_db_req_handler) refers to uread4.o(.text) for __aeabi_uread4
    htpt_task.o(i.htpt_create_db_req_handler) refers to htpt.o(.bss) for htpt_env
    htpt_task.o(i.htpt_create_db_req_handler) refers to htpt.o(.constdata) for htpt_att_db
    htpt_task.o(i.htpt_enable_req_handler) refers to prf_utils.o(i.prf_server_error_ind_send) for prf_server_error_ind_send
    htpt_task.o(i.htpt_enable_req_handler) refers to htpt.o(.bss) for htpt_env
    htpt_task.o(i.htpt_meas_intv_upd_req_handler) refers to prf_utils.o(i.prf_server_error_ind_send) for prf_server_error_ind_send
    htpt_task.o(i.htpt_meas_intv_upd_req_handler) refers to htpt.o(.bss) for htpt_env
    htpt_task.o(i.htpt_temp_send_req_handler) refers to htpt.o(i.htpt_pack_temp_value) for htpt_pack_temp_value
    htpt_task.o(i.htpt_temp_send_req_handler) refers to htpt.o(i.htpt_temp_send_cfm_send) for htpt_temp_send_cfm_send
    htpt_task.o(i.htpt_temp_send_req_handler) refers to htpt.o(.bss) for htpt_env
    htpt_task.o(i.htpt_temp_type_upd_req_handler) refers to prf_utils.o(i.prf_server_error_ind_send) for prf_server_error_ind_send
    htpt_task.o(i.htpt_temp_type_upd_req_handler) refers to htpt.o(.bss) for htpt_env
    htpt_task.o(i.task_htpt_desc_register) refers to htpt_task.o(.constdata) for .constdata
    htpt_task.o(i.task_htpt_desc_register) refers to htpt_task.o(.data) for .data
    htpt_task.o(.constdata) refers to htpt_task.o(i.htpt_create_db_req_handler) for htpt_create_db_req_handler
    htpt_task.o(.constdata) refers to htpt_task.o(i.htpt_enable_req_handler) for htpt_enable_req_handler
    htpt_task.o(.constdata) refers to htpt_task.o(i.htpt_temp_type_upd_req_handler) for htpt_temp_type_upd_req_handler
    htpt_task.o(.constdata) refers to htpt_task.o(i.htpt_temp_send_req_handler) for htpt_temp_send_req_handler
    htpt_task.o(.constdata) refers to htpt_task.o(i.htpt_meas_intv_upd_req_handler) for htpt_meas_intv_upd_req_handler
    htpt_task.o(.constdata) refers to htpt_task.o(i.htpt_temp_type_upd_req_handler) for htpt_temp_type_upd_req_handler
    htpt_task.o(.constdata) refers to htpt_task.o(i.gatt_handle_value_cfm_handler) for gatt_handle_value_cfm_handler
    htpt_task.o(.constdata) refers to htpt_task.o(i.gatt_notify_cmp_evt_handler) for gatt_notify_cmp_evt_handler
    htpt_task.o(.constdata) refers to htpt_task.o(i.gatt_write_cmd_ind_handler) for gatt_write_cmd_ind_handler
    htpt_task.o(.constdata) refers to htpt_task.o(i.gap_discon_cmp_evt_handler) for gap_discon_cmp_evt_handler
    htpt_task.o(.constdata) refers to htpt_task.o(.constdata) for htpt_default_state
    htpt_task.o(.constdata) refers to htpt_task.o(.constdata) for htpt_disabled
    htpt_task.o(.constdata) refers to htpt_task.o(.constdata) for htpt_idle
    htpt_task.o(.constdata) refers to htpt_task.o(.constdata) for htpt_connected
    diss.o(i.diss_disable) refers to diss.o(.bss) for .bss
    diss.o(i.diss_init) refers to memseta.o(.text) for __aeabi_memclr
    diss.o(i.diss_init) refers to diss_task.o(i.task_diss_desc_register) for task_diss_desc_register
    diss.o(i.diss_init) refers to diss.o(.bss) for .bss
    diss.o(.constdata) refers to diss.o(.constdata) for diss_dis_svc
    diss.o(.constdata) refers to diss.o(.constdata) for diss_manufacturer_name_char
    diss.o(.constdata) refers to diss.o(.constdata) for diss_model_nb_str_char
    diss.o(.constdata) refers to diss.o(.constdata) for diss_serial_nb_str_char
    diss.o(.constdata) refers to diss.o(.constdata) for diss_hard_rev_str_char
    diss.o(.constdata) refers to diss.o(.constdata) for diss_firm_rev_str_char
    diss.o(.constdata) refers to diss.o(.constdata) for diss_sw_rev_str_char
    diss.o(.constdata) refers to diss.o(.constdata) for diss_system_id_char
    diss.o(.constdata) refers to diss.o(.constdata) for diss_ieee_char
    diss.o(.constdata) refers to diss.o(.constdata) for diss_pnp_id_char
    diss_task.o(i.diss_create_db_req_handler) refers to diss.o(i.diss_compute_cfg_flag) for diss_compute_cfg_flag
    diss_task.o(i.diss_create_db_req_handler) refers to diss.o(.bss) for diss_env
    diss_task.o(i.diss_create_db_req_handler) refers to diss.o(.constdata) for diss_att_db
    diss_task.o(i.diss_enable_req_handler) refers to prf_utils.o(i.prf_server_error_ind_send) for prf_server_error_ind_send
    diss_task.o(i.diss_enable_req_handler) refers to diss.o(.bss) for diss_env
    diss_task.o(i.diss_set_char_val_req_handler) refers to diss.o(i.diss_check_val_len) for diss_check_val_len
    diss_task.o(i.diss_set_char_val_req_handler) refers to prf_utils.o(i.prf_server_error_ind_send) for prf_server_error_ind_send
    diss_task.o(i.diss_set_char_val_req_handler) refers to diss.o(.bss) for diss_env
    diss_task.o(i.gap_discon_cmp_evt_handler) refers to diss.o(i.diss_disable) for diss_disable
    diss_task.o(i.gap_discon_cmp_evt_handler) refers to diss.o(.bss) for diss_env
    diss_task.o(i.task_diss_desc_register) refers to diss_task.o(.constdata) for .constdata
    diss_task.o(i.task_diss_desc_register) refers to diss_task.o(.data) for .data
    diss_task.o(.constdata) refers to diss_task.o(i.diss_create_db_req_handler) for diss_create_db_req_handler
    diss_task.o(.constdata) refers to diss_task.o(i.diss_set_char_val_req_handler) for diss_set_char_val_req_handler
    diss_task.o(.constdata) refers to diss_task.o(i.diss_enable_req_handler) for diss_enable_req_handler
    diss_task.o(.constdata) refers to diss_task.o(i.gap_discon_cmp_evt_handler) for gap_discon_cmp_evt_handler
    diss_task.o(.constdata) refers to diss_task.o(.constdata) for diss_default_state
    diss_task.o(.constdata) refers to diss_task.o(.constdata) for diss_disabled
    diss_task.o(.constdata) refers to diss_task.o(.constdata) for diss_idle
    uart.o(i.UART0_RX_IRQHandler) refers to uart.o(.bss) for .bss
    uart.o(i.UART0_TX_IRQHandler) refers to uart.o(i.uart_tx_int_enable) for uart_tx_int_enable
    uart.o(i.UART0_TX_IRQHandler) refers to uart.o(.bss) for .bss
    uart.o(i.uart_check_tx_free) refers to uart.o(.bss) for .bss
    uart.o(i.uart_dump_register) refers to printfa.o(i.__0printf) for __2printf
    uart.o(i.uart_flow_off) refers to uart.o(i.uart_check_tx_free) for uart_check_tx_free
    uart.o(i.uart_flow_off) refers to gpio.o(i.gpio_write_pin) for gpio_write_pin
    uart.o(i.uart_init) refers to uart.o(.bss) for .bss
    uart.o(i.uart_init) refers to uart.o(.constdata) for .constdata
    uart.o(i.uart_read) refers to uart.o(.bss) for .bss
    uart.o(i.uart_tx_int_enable) refers to sleep.o(.data) for sleep_env
    uart.o(i.uart_write) refers to uart.o(i.uart_tx_int_enable) for uart_tx_int_enable
    uart.o(i.uart_write) refers to uart.o(.bss) for .bss
    gpio.o(i.GPIO_IRQHandler) refers to gpio.o(.data) for .data
    gpio.o(i.gpio_init) refers to gpio.o(.data) for .data
    gpio.o(i.gpio_sleep_allowed) refers to gpio.o(i.gpio_read_pin_field) for gpio_read_pin_field
    gpio.o(i.gpio_wakeup_config) refers to gpio.o(i.gpio_set_direction) for gpio_set_direction
    sleep.o(i.enter_low_power_mode) refers to sleep.o(i.syscon_SetPGCR0WithMask) for syscon_SetPGCR0WithMask
    sleep.o(i.enter_low_power_mode) refers to sleep.o(i.syscon_SetPGCR2WithMask) for syscon_SetPGCR2WithMask
    sleep.o(i.enter_low_power_mode) refers to syscon.o(i.syscon_set_sysclk_src) for syscon_set_sysclk_src
    sleep.o(i.enter_low_power_mode) refers to sleep.o(i.syscon_SetCMDCRWithMask) for syscon_SetCMDCRWithMask
    sleep.o(i.enter_low_power_mode) refers to sleep.o(.data) for .data
    sleep.o(i.enter_sleep) refers to sleep.o(i.syscon_SetCMDCRWithMask) for syscon_SetCMDCRWithMask
    sleep.o(i.enter_sleep) refers to sleep.o(i.syscon_SetPGCR0WithMask) for syscon_SetPGCR0WithMask
    sleep.o(i.enter_sleep) refers to sleep.o(i.syscon_SetPGCR2WithMask) for syscon_SetPGCR2WithMask
    sleep.o(i.enter_sleep) refers to lib.o(i.check_ble_wakeup) for check_ble_wakeup
    sleep.o(i.enter_sleep) refers to lib.o(i.set_dbg_info) for set_dbg_info
    sleep.o(i.enter_sleep) refers to lib.o(i.sleep_post_process) for sleep_post_process
    sleep.o(i.enter_sleep) refers to sleep.o(.data) for .data
    sleep.o(i.restore_from_low_power_mode) refers to sleep.o(i.syscon_SetPGCR2WithMask) for syscon_SetPGCR2WithMask
    sleep.o(i.restore_from_low_power_mode) refers to lib.o(i.check_ble_wakeup) for check_ble_wakeup
    sleep.o(i.restore_from_low_power_mode) refers to lib.o(i.set_dbg_info) for set_dbg_info
    sleep.o(i.restore_from_low_power_mode) refers to syscon.o(i.syscon_set_sysclk_src) for syscon_set_sysclk_src
    sleep.o(i.restore_from_low_power_mode) refers to syscon.o(i.syscon_set_ahb_clk) for syscon_set_ahb_clk
    sleep.o(i.restore_from_low_power_mode) refers to syscon.o(i.syscon_set_apb_clk) for syscon_set_apb_clk
    sleep.o(i.sleep_cb) refers to lib.o(i.restore_ble_setting) for restore_ble_setting
    sleep.o(i.sleep_cb) refers to usr_design.o(i.usr_sleep_restore) for usr_sleep_restore
    sleep.o(i.sleep_init) refers to sleep.o(i.syscon_SetPGCR0WithMask) for syscon_SetPGCR0WithMask
    sleep.o(i.sleep_init) refers to sleep.o(.data) for .data
    sleep.o(i.usr_sleep) refers to lib.o(i.ke_timer_empty) for ke_timer_empty
    sleep.o(i.usr_sleep) refers to gpio.o(i.gpio_sleep_allowed) for gpio_sleep_allowed
    sleep.o(i.usr_sleep) refers to uart.o(i.uart_check_tx_free) for uart_check_tx_free
    sleep.o(i.usr_sleep) refers to sleep.o(.data) for .data
    sleep.o(i.wakeup_by_gpio) refers to sleep.o(i.syscon_SetPGCR2WithMask) for syscon_SetPGCR2WithMask
    sleep.o(i.wakeup_by_gpio) refers to gpio.o(i.gpio_wakeup_config) for gpio_wakeup_config
    sleep.o(i.wakeup_by_gpio) refers to gpio.o(i.gpio_enable_interrupt) for gpio_enable_interrupt
    sleep.o(i.wakeup_by_gpio) refers to sleep.o(.data) for .data
    sleep.o(i.wakeup_by_sleep_timer) refers to sleep.o(i.syscon_SetPGCR2WithMask) for syscon_SetPGCR2WithMask
    sleep.o(i.wakeup_by_sleep_timer) refers to sleep.o(i.syscon_SetCMDCRWithMask) for syscon_SetCMDCRWithMask
    sleep.o(i.wakeup_by_sleep_timer) refers to sleep.o(i.syscon_SetPGCR0WithMask) for syscon_SetPGCR0WithMask
    sleep.o(i.wakeup_by_sleep_timer) refers to sleep.o(.data) for .data
    syscon.o(i.syscon_get_ahb_clk) refers to uidiv.o(.text) for __aeabi_uidivmod
    syscon.o(i.syscon_get_ahb_clk) refers to syscon.o(.data) for .data
    syscon.o(i.syscon_get_apb_clk) refers to uidiv.o(.text) for __aeabi_uidivmod
    syscon.o(i.syscon_get_apb_clk) refers to syscon.o(.data) for .data
    syscon.o(i.syscon_set_ahb_clk) refers to uidiv.o(.text) for __aeabi_uidivmod
    syscon.o(i.syscon_set_ahb_clk) refers to syscon.o(i.syscon_SetCMDCRWithMask) for syscon_SetCMDCRWithMask
    syscon.o(i.syscon_set_ahb_clk) refers to syscon.o(.data) for .data
    syscon.o(i.syscon_set_apb_clk) refers to uidiv.o(.text) for __aeabi_uidivmod
    syscon.o(i.syscon_set_apb_clk) refers to syscon.o(i.syscon_SetCMDCRWithMask) for syscon_SetCMDCRWithMask
    syscon.o(i.syscon_set_apb_clk) refers to syscon.o(.data) for .data
    syscon.o(i.syscon_set_ble_clk) refers to uidiv.o(.text) for __aeabi_uidivmod
    syscon.o(i.syscon_set_ble_clk) refers to syscon.o(i.syscon_SetCMDCRWithMask) for syscon_SetCMDCRWithMask
    syscon.o(i.syscon_set_ble_clk) refers to syscon.o(.data) for .data
    syscon.o(i.syscon_set_sysclk_src) refers to syscon.o(i.syscon_SetCMDCRWithMask) for syscon_SetCMDCRWithMask
    syscon.o(i.syscon_set_sysclk_src) refers to syscon.o(.data) for .data
    syscon.o(i.syscon_set_timer_clk) refers to uidiv.o(.text) for __aeabi_uidivmod
    syscon.o(i.syscon_set_timer_clk) refers to syscon.o(i.syscon_SetCMDCRWithMask) for syscon_SetCMDCRWithMask
    syscon.o(i.syscon_set_timer_clk) refers to syscon.o(.data) for .data
    syscon.o(i.syscon_set_usart_clk) refers to uidiv.o(.text) for __aeabi_uidivmod
    syscon.o(i.syscon_set_usart_clk) refers to syscon.o(i.syscon_SetCMDCRWithMask) for syscon_SetCMDCRWithMask
    syscon.o(i.syscon_set_usart_clk) refers to syscon.o(.data) for .data
    bletime.o(i.app_sys_time_check_timer_handler) refers to bletime.o(i.time_check_trigger) for time_check_trigger
    bletime.o(i.get_time_sec) refers to lib.o(i.ke_time) for ke_time
    bletime.o(i.get_time_sec) refers to uidiv.o(.text) for __aeabi_uidivmod
    bletime.o(i.get_time_sec) refers to bletime.o(.data) for .data
    bletime.o(i.qn_time_get) refers to bletime.o(i.get_time_sec) for get_time_sec
    bletime.o(i.qn_time_get) refers to localtime_w.o(.text) for localtime
    bletime.o(i.qn_time_init) refers to bletime.o(i.time_check_trigger) for time_check_trigger
    bletime.o(i.qn_time_set) refers to memseta.o(.text) for __aeabi_memclr4
    bletime.o(i.qn_time_set) refers to mktime.o(.text) for mktime
    bletime.o(i.qn_time_set) refers to bletime.o(i.set_time_sec) for set_time_sec
    bletime.o(i.set_time_sec) refers to lib.o(i.ke_time) for ke_time
    bletime.o(i.set_time_sec) refers to bletime.o(.data) for .data
    bletime.o(i.time_check_trigger) refers to lib.o(i.ke_time) for ke_time
    bletime.o(i.time_check_trigger) refers to uidiv.o(.text) for __aeabi_uidivmod
    bletime.o(i.time_check_trigger) refers to bletime.o(.data) for .data
    adc.o(i.ADC_IRQHandler) refers to adc.o(i.adc_adc_SetADC0WithMask) for adc_adc_SetADC0WithMask
    adc.o(i.ADC_IRQHandler) refers to adc.o(i.adc_clean_fifo) for adc_clean_fifo
    adc.o(i.ADC_IRQHandler) refers to adc.o(.data) for .data
    adc.o(i.ADC_IRQHandler) refers to adc.o(.bss) for .bss
    adc.o(i.ADC_IRQHandler) refers to sleep.o(.data) for sleep_env
    adc.o(i.ADC_RESULT_mV) refers to math.o(.text) for __aeabi_lmul
    adc.o(i.ADC_RESULT_mV) refers to adc.o(.data) for .data
    adc.o(i.__adc_calibrate) refers to adc.o(i.adc_adc_SetADC1WithMask) for adc_adc_SetADC1WithMask
    adc.o(i.__adc_calibrate) refers to adc.o(i.adc_read) for adc_read
    adc.o(i.__adc_calibrate) refers to adc.o(.data) for .data
    adc.o(i.__adc_calibrate) refers to adc.o(i.adc_offset_get_cb) for adc_offset_get_cb
    adc.o(i.adc_buf_gain_set) refers to adc.o(i.adc_adc_SetADC1WithMask) for adc_adc_SetADC1WithMask
    adc.o(i.adc_buf_in_set) refers to adc.o(i.adc_adc_SetADC1WithMask) for adc_adc_SetADC1WithMask
    adc.o(i.adc_buf_in_set) refers to adc.o(.data) for .data
    adc.o(i.adc_compare_init) refers to adc.o(i.adc_adc_SetADC1WithMask) for adc_adc_SetADC1WithMask
    adc.o(i.adc_compare_init) refers to adc.o(.bss) for .bss
    adc.o(i.adc_decimation_enable) refers to adc.o(i.adc_adc_SetADC1WithMask) for adc_adc_SetADC1WithMask
    adc.o(i.adc_init) refers to adc.o(i.syscon_SetADCCRWithMask) for syscon_SetADCCRWithMask
    adc.o(i.adc_init) refers to adc.o(i.adc_adc_SetADC1WithMask) for adc_adc_SetADC1WithMask
    adc.o(i.adc_init) refers to adc.o(i.__adc_calibrate) for __adc_calibrate
    adc.o(i.adc_init) refers to adc.o(.bss) for .bss
    adc.o(i.adc_offset_get_cb) refers to adc.o(.data) for .data
    adc.o(i.adc_read) refers to adc.o(i.adc_adc_SetADC0WithMask) for adc_adc_SetADC0WithMask
    adc.o(i.adc_read) refers to adc.o(.bss) for .bss
    adc.o(i.adc_read) refers to adc.o(.data) for .data
    adc.o(i.adc_read) refers to sleep.o(.data) for sleep_env
    analog.o(i.COMPARATOR0_IRQHandler) refers to analog.o(.data) for .data
    analog.o(i.COMPARATOR1_IRQHandler) refers to analog.o(.data) for .data
    analog.o(i.battery_monitor_enable) refers to analog.o(i.syscon_SetAnalogCRWithMask) for syscon_SetAnalogCRWithMask
    analog.o(i.brown_out_enable) refers to analog.o(i.syscon_SetAnalogCRWithMask) for syscon_SetAnalogCRWithMask
    analog.o(i.comparator_enable) refers to analog.o(i.syscon_SetAnalogCRWithMask) for syscon_SetAnalogCRWithMask
    analog.o(i.comparator_init) refers to analog.o(i.syscon_SetAnalogCRWithMask) for syscon_SetAnalogCRWithMask
    analog.o(i.comparator_init) refers to analog.o(.data) for .data
    analog.o(i.temp_sensor_enable) refers to analog.o(i.syscon_SetAnalogCRWithMask) for syscon_SetAnalogCRWithMask
    analog.o(i.temp_sensor_enable) refers to analog.o(.data) for .data
    wdt.o(i.WDT_IRQHandler) refers to wdt.o(i.wdt_irq_clear) for wdt_irq_clear
    wdt.o(i.WDT_IRQHandler) refers to wdt.o(.data) for .data
    wdt.o(i.wdt_init) refers to wdt.o(.data) for .data
    timer.o(i.TIMER0_IRQHandler) refers to timer.o(.data) for .data
    timer.o(i.TIMER1_IRQHandler) refers to timer.o(.data) for .data
    timer.o(i.TIMER2_IRQHandler) refers to timer.o(.data) for .data
    timer.o(i.TIMER3_IRQHandler) refers to timer.o(.data) for .data
    timer.o(i.timer_delay) refers to sleep.o(.data) for sleep_env
    timer.o(i.timer_init) refers to timer.o(i.NVIC_EnableIRQ) for NVIC_EnableIRQ
    timer.o(i.timer_init) refers to timer.o(.data) for .data
    led.o(i.led_get) refers to app_gap_task.o(i.__ARM_common_switch8) for __ARM_common_switch8
    led.o(i.led_get) refers to gpio.o(i.gpio_read_pin) for gpio_read_pin
    led.o(i.led_init) refers to gpio.o(i.gpio_set_direction_field) for gpio_set_direction_field
    led.o(i.led_init) refers to led.o(i.led_set) for led_set
    led.o(i.led_matrix) refers to gpio.o(i.gpio_write_pin_field) for gpio_write_pin_field
    led.o(i.led_set) refers to app_gap_task.o(i.__ARM_common_switch8) for __ARM_common_switch8
    led.o(i.led_set) refers to gpio.o(i.gpio_write_pin) for gpio_write_pin
    button.o(i.button_init) refers to gpio.o(i.gpio_wakeup_config) for gpio_wakeup_config
    button.o(i.button_init) refers to gpio.o(i.gpio_enable_interrupt) for gpio_enable_interrupt
    button.o(i.check_button_state) refers to gpio.o(i.gpio_read_pin_field) for gpio_read_pin_field
    retarget.o(i._ttywrch) refers to uart.o(i.UartPutc) for UartPutc
    retarget.o(i.fgetc) refers to uart.o(i.UartGetc) for UartGetc
    retarget.o(i.fgetc) refers to uart.o(i.UartPutc) for UartPutc
    retarget.o(i.fputc) refers to uart.o(i.UartPutc) for UartPutc
    lib.o(i.BLE_IRQHandler) refers to math.o(.text) for __rd_ble_reg
    lib.o(i.BLE_IRQHandler) refers to lib.o(i.default_exit_sleep_cb) for default_exit_sleep_cb
    lib.o(i.__nvds_put) refers to memcmp.o(.text) for memcmp
    lib.o(i.__nvds_put) refers to lib.o(i.nvds_write) for nvds_write
    lib.o(i.__nvds_put) refers to lib.o(i.nvds_purge) for nvds_purge
    lib.o(i.atts_svc_create_db_ext) refers to memcpya.o(.text) for __aeabi_memcpy
    lib.o(i.atts_svc_create_db_ext) refers to llsshr.o(.text) for __aeabi_lasr
    lib.o(i.ble_ext_wakeup_allow) refers to lib.o(i.ble_hw_sleep) for ble_hw_sleep
    lib.o(i.ble_ext_wakeup_allow) refers to lib.o(.data) for .data
    lib.o(i.ble_init) refers to memcpya.o(.text) for __aeabi_memcpy4
    lib.o(i.ble_init) refers to lib.o(i.task_gatt_desc_register) for task_gatt_desc_register
    lib.o(i.ble_init) refers to math.o(.text) for __wr_ble_reg
    lib.o(i.ble_init) refers to lib.o(i.config_work_mode) for config_work_mode
    lib.o(i.ble_init) refers to lib.o(.constdata) for .constdata
    lib.o(i.ble_init) refers to lib.o(.bss) for .bss
    lib.o(i.ble_init) refers to lib.o(i.l2cc_data_packet_ind_handler_patch) for l2cc_data_packet_ind_handler_patch
    lib.o(i.ble_init) refers to lib.o(i.gap_discon_ind_handler_patch) for gap_discon_ind_handler_patch
    lib.o(i.ble_init) refers to lib.o(.data) for .data
    lib.o(i.ble_sleep) refers to lib.o(i.fw_ble_sleep) for fw_ble_sleep
    lib.o(i.ble_sleep) refers to lib.o(.data) for .data
    lib.o(i.check_ble_wakeup) refers to math.o(.text) for __rd_ble_reg
    lib.o(i.config_work_mode) refers to lib.o(.data) for .data
    lib.o(i.dc_dc_enable) refers to lib.o(i.syscon_SetIvrefX32WithMask) for syscon_SetIvrefX32WithMask
    lib.o(i.dc_dc_enable) refers to lib.o(i.syscon_SetPGCR1WithMask) for syscon_SetPGCR1WithMask
    lib.o(i.dc_dc_enable) refers to lib.o(.data) for .data
    lib.o(i.flash_on) refers to lib.o(i.delay) for delay
    lib.o(i.fw_ble_sleep) refers to math.o(.text) for __rd_ble_reg
    lib.o(i.fw_ble_sleep) refers to lib.o(i.rwble_slot_2_lpcycles) for rwble_slot_2_lpcycles
    lib.o(i.fw_ble_sleep) refers to lib.o(.data) for .data
    lib.o(i.gatt_write_char_req_handler_patch) refers to memcpya.o(.text) for __aeabi_memcpy
    lib.o(i.ke_schedule) refers to lib.o(i.ke_time) for ke_time
    lib.o(i.ke_schedule) refers to lib.o(.data) for .data
    lib.o(i.ke_time) refers to math.o(.text) for __wr_ble_reg
    lib.o(i.ke_timer_empty) refers to lib.o(.data) for .data
    lib.o(i.l2cc_data_packet_ind_handler_patch) refers to lib.o(i.co_buf_rx_get) for co_buf_rx_get
    lib.o(i.l2cc_data_packet_ind_handler_patch) refers to memcpya.o(.text) for __aeabi_memcpy
    lib.o(i.lld_sleep_lpcycles_2_us) refers to math.o(.text) for __aeabi_lmul
    lib.o(i.lld_sleep_lpcycles_2_us) refers to lib.o(.data) for .data
    lib.o(i.nvds_copy) refers to lib.o(.bss) for .bss
    lib.o(i.nvds_erase) refers to lib.o(i.flash_on) for flash_on
    lib.o(i.nvds_erase) refers to lib.o(i.nvds_copy) for nvds_copy
    lib.o(i.nvds_erase) refers to lib.o(i.nvds_write) for nvds_write
    lib.o(i.nvds_purge) refers to lib.o(i.nvds_erase) for nvds_erase
    lib.o(i.nvds_purge) refers to lib.o(i.nvds_write) for nvds_write
    lib.o(i.nvds_restore_backup) refers to lib.o(i.flash_on) for flash_on
    lib.o(i.nvds_restore_backup) refers to memcmp.o(.text) for memcmp
    lib.o(i.nvds_restore_backup) refers to lib.o(i.nvds_copy) for nvds_copy
    lib.o(i.nvds_restore_backup) refers to lib.o(.bss) for .bss
    lib.o(i.plf_init) refers to lib.o(i.syscon_SetPGCR1WithMask) for syscon_SetPGCR1WithMask
    lib.o(i.plf_init) refers to lib.o(i.syscon_SetIvrefX32WithMask) for syscon_SetIvrefX32WithMask
    lib.o(i.plf_init) refers to lib.o(i.dp_dp_SetRegWithMask) for dp_dp_SetRegWithMask
    lib.o(i.plf_init) refers to lib.o(i.flash_on) for flash_on
    lib.o(i.plf_init) refers to lib.o(i.nvds_restore_backup) for nvds_restore_backup
    lib.o(i.plf_init) refers to lib.o(i.powerup_calibration) for powerup_calibration
    lib.o(i.plf_init) refers to rand.o(.text) for srand
    lib.o(i.plf_init) refers to lib.o(.data) for .data
    lib.o(i.plf_init) refers to lib.o(i.nvds_write) for nvds_write
    lib.o(i.plf_init) refers to lib.o(i.nvds_erase) for nvds_erase
    lib.o(i.plf_init) refers to lib.o(i.foo1) for foo1
    lib.o(i.plf_init) refers to lib.o(i.lld_sleep_lpcycles_2_us) for lld_sleep_lpcycles_2_us
    lib.o(i.plf_init) refers to lib.o(i.default_enter_sleep_cb) for default_enter_sleep_cb
    lib.o(i.plf_init) refers to lib.o(i.default_exit_sleep_cb) for default_exit_sleep_cb
    lib.o(i.plf_init) refers to lib.o(i.plf_reset_cb) for plf_reset_cb
    lib.o(i.powerup_calibration) refers to lib.o(i.cal_cal_SetCAL0WithMask) for cal_cal_SetCAL0WithMask
    lib.o(i.powerup_calibration) refers to lib.o(i.cal_cal_SetCAL1WithMask) for cal_cal_SetCAL1WithMask
    lib.o(i.powerup_calibration) refers to lib.o(i.dp_dp_SetRegWithMask) for dp_dp_SetRegWithMask
    lib.o(i.powerup_calibration) refers to lib.o(i.syscon_SetPGCR1WithMask) for syscon_SetPGCR1WithMask
    lib.o(i.powerup_calibration) refers to lib.o(i.delay) for delay
    lib.o(i.powerup_calibration) refers to qnrf.o(i.rf_enable_sw_set_freq) for rf_enable_sw_set_freq
    lib.o(i.powerup_calibration) refers to qnrf.o(i.rf_enable) for rf_enable
    lib.o(i.reg_eaci_tx_done) refers to lib.o(.data) for .data
    lib.o(i.restore_ble_setting) refers to lib.o(i.dp_dp_SetRegWithMask) for dp_dp_SetRegWithMask
    lib.o(i.rwble_slot_2_lpcycles) refers to math.o(.text) for __aeabi_uldivmod
    lib.o(i.sleep_post_process) refers to lib.o(i.syscon_SetPGCR1WithMask) for syscon_SetPGCR1WithMask
    lib.o(i.sleep_post_process) refers to lib.o(i.dp_dp_SetRegWithMask) for dp_dp_SetRegWithMask
    lib.o(i.task_gatt_desc_register) refers to memcpya.o(.text) for __aeabi_memcpy4
    lib.o(i.task_gatt_desc_register) refers to lib.o(.constdata) for .constdata
    lib.o(i.task_gatt_desc_register) refers to lib.o(.bss) for .bss
    lib.o(i.task_gatt_desc_register) refers to lib.o(i.gatt_read_char_req_handler_patch) for gatt_read_char_req_handler_patch
    lib.o(i.task_gatt_desc_register) refers to lib.o(i.gatt_write_char_req_handler_patch) for gatt_write_char_req_handler_patch
    lib.o(i.task_gatt_desc_register) refers to lib.o(i.atts_req_error_ind_handler_patch) for atts_req_error_ind_handler_patch
    lib.o(i.task_gatt_desc_register) refers to lib.o(i.l2cc_data_send_rsp_handler_patch) for l2cc_data_send_rsp_handler_patch
    lib.o(i.task_gatt_desc_register) refers to lib.o(.data) for .data
    lib.o(.constdata) refers to lib.o(.bss) for gatt_idle_new
    lib.o(.data) refers to lib.o(.bss) for l2cm_default_state_new
    qnrf.o(i.rf_enable) refers to qnrf.o(i.dp_dp_SetRegWithMask) for dp_dp_SetRegWithMask
    qnrf.o(i.rf_set_freq) refers to qnrf.o(.constdata) for .constdata
    qnrf.o(i.rf_tx_power_level_get) refers to qnrf.o(.constdata) for .constdata
    qnrf.o(i.rf_tx_power_level_set) refers to app_gap_task.o(i.__ARM_common_switch8) for __ARM_common_switch8
    qnrf.o(i.rf_tx_power_level_set) refers to qnrf.o(.constdata) for .constdata
    entry.o(.ARM.Collect$$$$00000000) refers (Special) to entry10a.o(.ARM.Collect$$$$0000000D) for __rt_final_cpp
    entry.o(.ARM.Collect$$$$00000000) refers (Special) to entry11a.o(.ARM.Collect$$$$0000000F) for __rt_final_exit
    entry.o(.ARM.Collect$$$$00000000) refers (Special) to entry7b.o(.ARM.Collect$$$$00000008) for _main_clock
    entry.o(.ARM.Collect$$$$00000000) refers (Special) to entry8b.o(.ARM.Collect$$$$0000000A) for _main_cpp_init
    entry.o(.ARM.Collect$$$$00000000) refers (Special) to entry9a.o(.ARM.Collect$$$$0000000B) for _main_init
    entry.o(.ARM.Collect$$$$00000000) refers (Special) to entry5.o(.ARM.Collect$$$$00000004) for _main_scatterload
    entry.o(.ARM.Collect$$$$00000000) refers (Special) to entry2.o(.ARM.Collect$$$$00000001) for _main_stk
    idiv.o(.text) refers to uidiv.o(.text) for __aeabi_uidivmod
    rand.o(.text) refers to rand.o(.data) for .data
    localtime.o(.text) refers to uidiv.o(.text) for __aeabi_uidivmod
    localtime.o(.text) refers to localtime.o(.bss) for .bss
    localtime.o(.text) refers to localtime.o(.constdata) for .constdata
    mktime.o(.text) refers to idiv.o(.text) for __aeabi_idivmod
    mktime.o(.text) refers to localtime_i.o(.text) for _localtime
    mktime.o(.text) refers to mktime.o(.constdata) for .constdata
    printfb.o(i.__0fprintf$bare) refers to printfb.o(i._printf_core) for _printf_core
    printfb.o(i.__0fprintf$bare) refers to retarget.o(i.fputc) for fputc
    printfb.o(i.__0printf$bare) refers to printfb.o(i._printf_core) for _printf_core
    printfb.o(i.__0printf$bare) refers to retarget.o(i.fputc) for fputc
    printfb.o(i.__0printf$bare) refers to retarget.o(.data) for __stdout
    printfb.o(i.__0snprintf$bare) refers to printfb.o(i._printf_core) for _printf_core
    printfb.o(i.__0snprintf$bare) refers to printfb.o(i._snputc) for _snputc
    printfb.o(i.__0sprintf$bare) refers to printfb.o(i._printf_core) for _printf_core
    printfb.o(i.__0sprintf$bare) refers to printfb.o(i._sputc) for _sputc
    printfb.o(i.__0vfprintf$bare) refers to printfb.o(i._printf_core) for _printf_core
    printfb.o(i.__0vfprintf$bare) refers to retarget.o(i.fputc) for fputc
    printfb.o(i.__0vprintf$bare) refers to printfb.o(i._printf_core) for _printf_core
    printfb.o(i.__0vprintf$bare) refers to retarget.o(i.fputc) for fputc
    printfb.o(i.__0vprintf$bare) refers to retarget.o(.data) for __stdout
    printfb.o(i.__0vsnprintf$bare) refers to printfb.o(i._printf_core) for _printf_core
    printfb.o(i.__0vsnprintf$bare) refers to printfb.o(i._snputc) for _snputc
    printfb.o(i.__0vsprintf$bare) refers to printfb.o(i._printf_core) for _printf_core
    printfb.o(i.__0vsprintf$bare) refers to printfb.o(i._sputc) for _sputc
    printf0.o(i.__0fprintf$0) refers to printf0.o(i._printf_core) for _printf_core
    printf0.o(i.__0fprintf$0) refers to retarget.o(i.fputc) for fputc
    printf0.o(i.__0printf$0) refers to printf0.o(i._printf_core) for _printf_core
    printf0.o(i.__0printf$0) refers to retarget.o(i.fputc) for fputc
    printf0.o(i.__0printf$0) refers to retarget.o(.data) for __stdout
    printf0.o(i.__0snprintf$0) refers to printf0.o(i._printf_core) for _printf_core
    printf0.o(i.__0snprintf$0) refers to printf0.o(i._snputc) for _snputc
    printf0.o(i.__0sprintf$0) refers to printf0.o(i._printf_core) for _printf_core
    printf0.o(i.__0sprintf$0) refers to printf0.o(i._sputc) for _sputc
    printf0.o(i.__0vfprintf$0) refers to printf0.o(i._printf_core) for _printf_core
    printf0.o(i.__0vfprintf$0) refers to retarget.o(i.fputc) for fputc
    printf0.o(i.__0vprintf$0) refers to printf0.o(i._printf_core) for _printf_core
    printf0.o(i.__0vprintf$0) refers to retarget.o(i.fputc) for fputc
    printf0.o(i.__0vprintf$0) refers to retarget.o(.data) for __stdout
    printf0.o(i.__0vsnprintf$0) refers to printf0.o(i._printf_core) for _printf_core
    printf0.o(i.__0vsnprintf$0) refers to printf0.o(i._snputc) for _snputc
    printf0.o(i.__0vsprintf$0) refers to printf0.o(i._printf_core) for _printf_core
    printf0.o(i.__0vsprintf$0) refers to printf0.o(i._sputc) for _sputc
    printf1.o(i.__0fprintf$1) refers to printf1.o(i._printf_core) for _printf_core
    printf1.o(i.__0fprintf$1) refers to retarget.o(i.fputc) for fputc
    printf1.o(i.__0printf$1) refers to printf1.o(i._printf_core) for _printf_core
    printf1.o(i.__0printf$1) refers to retarget.o(i.fputc) for fputc
    printf1.o(i.__0printf$1) refers to retarget.o(.data) for __stdout
    printf1.o(i.__0snprintf$1) refers to printf1.o(i._printf_core) for _printf_core
    printf1.o(i.__0snprintf$1) refers to printf1.o(i._snputc) for _snputc
    printf1.o(i.__0sprintf$1) refers to printf1.o(i._printf_core) for _printf_core
    printf1.o(i.__0sprintf$1) refers to printf1.o(i._sputc) for _sputc
    printf1.o(i.__0vfprintf$1) refers to printf1.o(i._printf_core) for _printf_core
    printf1.o(i.__0vfprintf$1) refers to retarget.o(i.fputc) for fputc
    printf1.o(i.__0vprintf$1) refers to printf1.o(i._printf_core) for _printf_core
    printf1.o(i.__0vprintf$1) refers to retarget.o(i.fputc) for fputc
    printf1.o(i.__0vprintf$1) refers to retarget.o(.data) for __stdout
    printf1.o(i.__0vsnprintf$1) refers to printf1.o(i._printf_core) for _printf_core
    printf1.o(i.__0vsnprintf$1) refers to printf1.o(i._snputc) for _snputc
    printf1.o(i.__0vsprintf$1) refers to printf1.o(i._printf_core) for _printf_core
    printf1.o(i.__0vsprintf$1) refers to printf1.o(i._sputc) for _sputc
    printf1.o(i._printf_core) refers to uidiv.o(.text) for __aeabi_uidivmod
    printf2.o(i.__0fprintf$2) refers to printf2.o(i._printf_core) for _printf_core
    printf2.o(i.__0fprintf$2) refers to retarget.o(i.fputc) for fputc
    printf2.o(i.__0printf$2) refers to printf2.o(i._printf_core) for _printf_core
    printf2.o(i.__0printf$2) refers to retarget.o(i.fputc) for fputc
    printf2.o(i.__0printf$2) refers to retarget.o(.data) for __stdout
    printf2.o(i.__0snprintf$2) refers to printf2.o(i._printf_core) for _printf_core
    printf2.o(i.__0snprintf$2) refers to printf2.o(i._snputc) for _snputc
    printf2.o(i.__0sprintf$2) refers to printf2.o(i._printf_core) for _printf_core
    printf2.o(i.__0sprintf$2) refers to printf2.o(i._sputc) for _sputc
    printf2.o(i.__0vfprintf$2) refers to printf2.o(i._printf_core) for _printf_core
    printf2.o(i.__0vfprintf$2) refers to retarget.o(i.fputc) for fputc
    printf2.o(i.__0vprintf$2) refers to printf2.o(i._printf_core) for _printf_core
    printf2.o(i.__0vprintf$2) refers to retarget.o(i.fputc) for fputc
    printf2.o(i.__0vprintf$2) refers to retarget.o(.data) for __stdout
    printf2.o(i.__0vsnprintf$2) refers to printf2.o(i._printf_core) for _printf_core
    printf2.o(i.__0vsnprintf$2) refers to printf2.o(i._snputc) for _snputc
    printf2.o(i.__0vsprintf$2) refers to printf2.o(i._printf_core) for _printf_core
    printf2.o(i.__0vsprintf$2) refers to printf2.o(i._sputc) for _sputc
    printf3.o(i.__0fprintf$3) refers to printf3.o(i._printf_core) for _printf_core
    printf3.o(i.__0fprintf$3) refers to retarget.o(i.fputc) for fputc
    printf3.o(i.__0printf$3) refers to printf3.o(i._printf_core) for _printf_core
    printf3.o(i.__0printf$3) refers to retarget.o(i.fputc) for fputc
    printf3.o(i.__0printf$3) refers to retarget.o(.data) for __stdout
    printf3.o(i.__0snprintf$3) refers to printf3.o(i._printf_core) for _printf_core
    printf3.o(i.__0snprintf$3) refers to printf3.o(i._snputc) for _snputc
    printf3.o(i.__0sprintf$3) refers to printf3.o(i._printf_core) for _printf_core
    printf3.o(i.__0sprintf$3) refers to printf3.o(i._sputc) for _sputc
    printf3.o(i.__0vfprintf$3) refers to printf3.o(i._printf_core) for _printf_core
    printf3.o(i.__0vfprintf$3) refers to retarget.o(i.fputc) for fputc
    printf3.o(i.__0vprintf$3) refers to printf3.o(i._printf_core) for _printf_core
    printf3.o(i.__0vprintf$3) refers to retarget.o(i.fputc) for fputc
    printf3.o(i.__0vprintf$3) refers to retarget.o(.data) for __stdout
    printf3.o(i.__0vsnprintf$3) refers to printf3.o(i._printf_core) for _printf_core
    printf3.o(i.__0vsnprintf$3) refers to printf3.o(i._snputc) for _snputc
    printf3.o(i.__0vsprintf$3) refers to printf3.o(i._printf_core) for _printf_core
    printf3.o(i.__0vsprintf$3) refers to printf3.o(i._sputc) for _sputc
    printf3.o(i._printf_core) refers to uidiv.o(.text) for __aeabi_uidivmod
    printf4.o(i.__0fprintf$4) refers to printf4.o(i._printf_core) for _printf_core
    printf4.o(i.__0fprintf$4) refers to retarget.o(i.fputc) for fputc
    printf4.o(i.__0printf$4) refers to printf4.o(i._printf_core) for _printf_core
    printf4.o(i.__0printf$4) refers to retarget.o(i.fputc) for fputc
    printf4.o(i.__0printf$4) refers to retarget.o(.data) for __stdout
    printf4.o(i.__0snprintf$4) refers to printf4.o(i._printf_core) for _printf_core
    printf4.o(i.__0snprintf$4) refers to printf4.o(i._snputc) for _snputc
    printf4.o(i.__0sprintf$4) refers to printf4.o(i._printf_core) for _printf_core
    printf4.o(i.__0sprintf$4) refers to printf4.o(i._sputc) for _sputc
    printf4.o(i.__0vfprintf$4) refers to printf4.o(i._printf_core) for _printf_core
    printf4.o(i.__0vfprintf$4) refers to retarget.o(i.fputc) for fputc
    printf4.o(i.__0vprintf$4) refers to printf4.o(i._printf_core) for _printf_core
    printf4.o(i.__0vprintf$4) refers to retarget.o(i.fputc) for fputc
    printf4.o(i.__0vprintf$4) refers to retarget.o(.data) for __stdout
    printf4.o(i.__0vsnprintf$4) refers to printf4.o(i._printf_core) for _printf_core
    printf4.o(i.__0vsnprintf$4) refers to printf4.o(i._snputc) for _snputc
    printf4.o(i.__0vsprintf$4) refers to printf4.o(i._printf_core) for _printf_core
    printf4.o(i.__0vsprintf$4) refers to printf4.o(i._sputc) for _sputc
    printf4.o(i._printf_core) refers to math.o(.text) for __aeabi_uldivmod
    printf5.o(i.__0fprintf$5) refers to printf5.o(i._printf_core) for _printf_core
    printf5.o(i.__0fprintf$5) refers to retarget.o(i.fputc) for fputc
    printf5.o(i.__0printf$5) refers to printf5.o(i._printf_core) for _printf_core
    printf5.o(i.__0printf$5) refers to retarget.o(i.fputc) for fputc
    printf5.o(i.__0printf$5) refers to retarget.o(.data) for __stdout
    printf5.o(i.__0snprintf$5) refers to printf5.o(i._printf_core) for _printf_core
    printf5.o(i.__0snprintf$5) refers to printf5.o(i._snputc) for _snputc
    printf5.o(i.__0sprintf$5) refers to printf5.o(i._printf_core) for _printf_core
    printf5.o(i.__0sprintf$5) refers to printf5.o(i._sputc) for _sputc
    printf5.o(i.__0vfprintf$5) refers to printf5.o(i._printf_core) for _printf_core
    printf5.o(i.__0vfprintf$5) refers to retarget.o(i.fputc) for fputc
    printf5.o(i.__0vprintf$5) refers to printf5.o(i._printf_core) for _printf_core
    printf5.o(i.__0vprintf$5) refers to retarget.o(i.fputc) for fputc
    printf5.o(i.__0vprintf$5) refers to retarget.o(.data) for __stdout
    printf5.o(i.__0vsnprintf$5) refers to printf5.o(i._printf_core) for _printf_core
    printf5.o(i.__0vsnprintf$5) refers to printf5.o(i._snputc) for _snputc
    printf5.o(i.__0vsprintf$5) refers to printf5.o(i._printf_core) for _printf_core
    printf5.o(i.__0vsprintf$5) refers to printf5.o(i._sputc) for _sputc
    printf5.o(i._printf_core) refers to math.o(.text) for __aeabi_uldivmod
    printf6.o(i.__0fprintf$6) refers to printf6.o(i._printf_core) for _printf_core
    printf6.o(i.__0fprintf$6) refers to retarget.o(i.fputc) for fputc
    printf6.o(i.__0printf$6) refers to printf6.o(i._printf_core) for _printf_core
    printf6.o(i.__0printf$6) refers to retarget.o(i.fputc) for fputc
    printf6.o(i.__0printf$6) refers to retarget.o(.data) for __stdout
    printf6.o(i.__0snprintf$6) refers to printf6.o(i._printf_core) for _printf_core
    printf6.o(i.__0snprintf$6) refers to printf6.o(i._snputc) for _snputc
    printf6.o(i.__0sprintf$6) refers to printf6.o(i._printf_core) for _printf_core
    printf6.o(i.__0sprintf$6) refers to printf6.o(i._sputc) for _sputc
    printf6.o(i.__0vfprintf$6) refers to printf6.o(i._printf_core) for _printf_core
    printf6.o(i.__0vfprintf$6) refers to retarget.o(i.fputc) for fputc
    printf6.o(i.__0vprintf$6) refers to printf6.o(i._printf_core) for _printf_core
    printf6.o(i.__0vprintf$6) refers to retarget.o(i.fputc) for fputc
    printf6.o(i.__0vprintf$6) refers to retarget.o(.data) for __stdout
    printf6.o(i.__0vsnprintf$6) refers to printf6.o(i._printf_core) for _printf_core
    printf6.o(i.__0vsnprintf$6) refers to printf6.o(i._snputc) for _snputc
    printf6.o(i.__0vsprintf$6) refers to printf6.o(i._printf_core) for _printf_core
    printf6.o(i.__0vsprintf$6) refers to printf6.o(i._sputc) for _sputc
    printf6.o(i._printf_core) refers to printf6.o(i._printf_pre_padding) for _printf_pre_padding
    printf6.o(i._printf_core) refers to printf6.o(i._printf_post_padding) for _printf_post_padding
    printf6.o(i._printf_core) refers to uidiv.o(.text) for __aeabi_uidivmod
    printf7.o(i.__0fprintf$7) refers to printf7.o(i._printf_core) for _printf_core
    printf7.o(i.__0fprintf$7) refers to retarget.o(i.fputc) for fputc
    printf7.o(i.__0printf$7) refers to printf7.o(i._printf_core) for _printf_core
    printf7.o(i.__0printf$7) refers to retarget.o(i.fputc) for fputc
    printf7.o(i.__0printf$7) refers to retarget.o(.data) for __stdout
    printf7.o(i.__0snprintf$7) refers to printf7.o(i._printf_core) for _printf_core
    printf7.o(i.__0snprintf$7) refers to printf7.o(i._snputc) for _snputc
    printf7.o(i.__0sprintf$7) refers to printf7.o(i._printf_core) for _printf_core
    printf7.o(i.__0sprintf$7) refers to printf7.o(i._sputc) for _sputc
    printf7.o(i.__0vfprintf$7) refers to printf7.o(i._printf_core) for _printf_core
    printf7.o(i.__0vfprintf$7) refers to retarget.o(i.fputc) for fputc
    printf7.o(i.__0vprintf$7) refers to printf7.o(i._printf_core) for _printf_core
    printf7.o(i.__0vprintf$7) refers to retarget.o(i.fputc) for fputc
    printf7.o(i.__0vprintf$7) refers to retarget.o(.data) for __stdout
    printf7.o(i.__0vsnprintf$7) refers to printf7.o(i._printf_core) for _printf_core
    printf7.o(i.__0vsnprintf$7) refers to printf7.o(i._snputc) for _snputc
    printf7.o(i.__0vsprintf$7) refers to printf7.o(i._printf_core) for _printf_core
    printf7.o(i.__0vsprintf$7) refers to printf7.o(i._sputc) for _sputc
    printf7.o(i._printf_core) refers to printf7.o(i._printf_pre_padding) for _printf_pre_padding
    printf7.o(i._printf_core) refers to printf7.o(i._printf_post_padding) for _printf_post_padding
    printf7.o(i._printf_core) refers to math.o(.text) for __aeabi_uldivmod
    printf8.o(i.__0fprintf$8) refers to printf8.o(i._printf_core) for _printf_core
    printf8.o(i.__0fprintf$8) refers to retarget.o(i.fputc) for fputc
    printf8.o(i.__0printf$8) refers to printf8.o(i._printf_core) for _printf_core
    printf8.o(i.__0printf$8) refers to retarget.o(i.fputc) for fputc
    printf8.o(i.__0printf$8) refers to retarget.o(.data) for __stdout
    printf8.o(i.__0snprintf$8) refers to printf8.o(i._printf_core) for _printf_core
    printf8.o(i.__0snprintf$8) refers to printf8.o(i._snputc) for _snputc
    printf8.o(i.__0sprintf$8) refers to printf8.o(i._printf_core) for _printf_core
    printf8.o(i.__0sprintf$8) refers to printf8.o(i._sputc) for _sputc
    printf8.o(i.__0vfprintf$8) refers to printf8.o(i._printf_core) for _printf_core
    printf8.o(i.__0vfprintf$8) refers to retarget.o(i.fputc) for fputc
    printf8.o(i.__0vprintf$8) refers to printf8.o(i._printf_core) for _printf_core
    printf8.o(i.__0vprintf$8) refers to retarget.o(i.fputc) for fputc
    printf8.o(i.__0vprintf$8) refers to retarget.o(.data) for __stdout
    printf8.o(i.__0vsnprintf$8) refers to printf8.o(i._printf_core) for _printf_core
    printf8.o(i.__0vsnprintf$8) refers to printf8.o(i._snputc) for _snputc
    printf8.o(i.__0vsprintf$8) refers to printf8.o(i._printf_core) for _printf_core
    printf8.o(i.__0vsprintf$8) refers to printf8.o(i._sputc) for _sputc
    printf8.o(i._printf_core) refers to printf8.o(i._printf_pre_padding) for _printf_pre_padding
    printf8.o(i._printf_core) refers to printf8.o(i._printf_post_padding) for _printf_post_padding
    printf8.o(i._printf_core) refers to math.o(.text) for __aeabi_uldivmod
    printfa.o(i.__0fprintf) refers (Special) to iusefp.o(.text) for __I$use$fp
    printfa.o(i.__0fprintf) refers to printfa.o(i._printf_core) for _printf_core
    printfa.o(i.__0fprintf) refers to retarget.o(i.fputc) for fputc
    printfa.o(i.__0printf) refers (Special) to iusefp.o(.text) for __I$use$fp
    printfa.o(i.__0printf) refers to printfa.o(i._printf_core) for _printf_core
    printfa.o(i.__0printf) refers to retarget.o(i.fputc) for fputc
    printfa.o(i.__0printf) refers to retarget.o(.data) for __stdout
    printfa.o(i.__0snprintf) refers (Special) to iusefp.o(.text) for __I$use$fp
    printfa.o(i.__0snprintf) refers to printfa.o(i._printf_core) for _printf_core
    printfa.o(i.__0snprintf) refers to printfa.o(i._snputc) for _snputc
    printfa.o(i.__0sprintf) refers (Special) to iusefp.o(.text) for __I$use$fp
    printfa.o(i.__0sprintf) refers to printfa.o(i._printf_core) for _printf_core
    printfa.o(i.__0sprintf) refers to printfa.o(i._sputc) for _sputc
    printfa.o(i.__0vfprintf) refers (Special) to iusefp.o(.text) for __I$use$fp
    printfa.o(i.__0vfprintf) refers to printfa.o(i._printf_core) for _printf_core
    printfa.o(i.__0vfprintf) refers to retarget.o(i.fputc) for fputc
    printfa.o(i.__0vprintf) refers (Special) to iusefp.o(.text) for __I$use$fp
    printfa.o(i.__0vprintf) refers to printfa.o(i._printf_core) for _printf_core
    printfa.o(i.__0vprintf) refers to retarget.o(i.fputc) for fputc
    printfa.o(i.__0vprintf) refers to retarget.o(.data) for __stdout
    printfa.o(i.__0vsnprintf) refers (Special) to iusefp.o(.text) for __I$use$fp
    printfa.o(i.__0vsnprintf) refers to printfa.o(i._printf_core) for _printf_core
    printfa.o(i.__0vsnprintf) refers to printfa.o(i._snputc) for _snputc
    printfa.o(i.__0vsprintf) refers (Special) to iusefp.o(.text) for __I$use$fp
    printfa.o(i.__0vsprintf) refers to printfa.o(i._printf_core) for _printf_core
    printfa.o(i.__0vsprintf) refers to printfa.o(i._sputc) for _sputc
    printfa.o(i._fp_digits) refers (Special) to iusefp.o(.text) for __I$use$fp
    printfa.o(i._fp_digits) refers to dmul.o(.text) for __aeabi_dmul
    printfa.o(i._fp_digits) refers to ddiv.o(.text) for __aeabi_ddiv
    printfa.o(i._fp_digits) refers to cdrcmple.o(.text) for __aeabi_cdrcmple
    printfa.o(i._fp_digits) refers to dadd.o(.text) for __aeabi_dadd
    printfa.o(i._fp_digits) refers to dfixul.o(.text) for __aeabi_d2ulz
    printfa.o(i._fp_digits) refers to math.o(.text) for __aeabi_uldivmod
    printfa.o(i._printf_core) refers (Special) to iusefp.o(.text) for __I$use$fp
    printfa.o(i._printf_core) refers to printfa.o(i._printf_pre_padding) for _printf_pre_padding
    printfa.o(i._printf_core) refers to math.o(.text) for __aeabi_uldivmod
    printfa.o(i._printf_core) refers to printfa.o(i._printf_post_padding) for _printf_post_padding
    printfa.o(i._printf_core) refers to printfa.o(i._fp_digits) for _fp_digits
    printfa.o(i._printf_core) refers to uidiv.o(.text) for __aeabi_uidivmod
    printfa.o(i._printf_post_padding) refers (Special) to iusefp.o(.text) for __I$use$fp
    printfa.o(i._printf_pre_padding) refers (Special) to iusefp.o(.text) for __I$use$fp
    printfa.o(i._snputc) refers (Special) to iusefp.o(.text) for __I$use$fp
    printfa.o(i._sputc) refers (Special) to iusefp.o(.text) for __I$use$fp
    atoi.o(.text) refers to errno.o(i.__aeabi_errno_addr) for __aeabi_errno_addr
    atoi.o(.text) refers to strtol.o(.text) for strtol
    dadd.o(.text) refers (Special) to iusefp.o(.text) for __I$use$fp
    dadd.o(.text) refers to llshl.o(.text) for __aeabi_llsl
    dadd.o(.text) refers to llsshr.o(.text) for __aeabi_lasr
    dadd.o(.text) refers to depilogue.o(.text) for _double_epilogue
    dmul.o(.text) refers (Special) to iusefp.o(.text) for __I$use$fp
    dmul.o(.text) refers to depilogue.o(.text) for _double_epilogue
    ddiv.o(.text) refers (Special) to iusefp.o(.text) for __I$use$fp
    ddiv.o(.text) refers to depilogue.o(.text) for _double_round
    dflti.o(.text) refers (Special) to iusefp.o(.text) for __I$use$fp
    dflti.o(.text) refers to depilogue.o(.text) for _double_epilogue
    dfixi.o(.text) refers (Special) to iusefp.o(.text) for __I$use$fp
    dfixi.o(.text) refers to llushr.o(.text) for __aeabi_llsr
    entry2.o(.ARM.Collect$$$$00000001) refers to entry2.o(.ARM.Collect$$$$00002712) for __lit__00000000
    entry2.o(.ARM.Collect$$$$00002712) refers to startup.o(STACK) for __initial_sp
    entry2.o(__vectab_stack_and_reset_area) refers to startup.o(STACK) for __initial_sp
    entry2.o(__vectab_stack_and_reset_area) refers to entry.o(.ARM.Collect$$$$00000000) for __main
    entry5.o(.ARM.Collect$$$$00000004) refers to init.o(.text) for __scatterload
    entry9a.o(.ARM.Collect$$$$0000000B) refers to app_main.o(i.main) for main
    entry9b.o(.ARM.Collect$$$$0000000C) refers to app_main.o(i.main) for main
    localtime_w.o(.text) refers to localtime_i.o(.text) for _localtime
    localtime_w.o(.text) refers to localtime_w.o(.bss) for .bss
    localtime_i.o(.text) refers to uidiv.o(.text) for __aeabi_uidivmod
    localtime_i.o(.text) refers to localtime_i.o(.constdata) for .constdata
    errno.o(i.__aeabi_errno_addr) refers to errno.o(.data) for .data
    errno.o(i.__read_errno) refers to errno.o(.data) for .data
    errno.o(i.__set_errno) refers to errno.o(.data) for .data
    strtol.o(.text) refers to ctype_o.o(.text) for __rt_ctype_table
    strtol.o(.text) refers to _strtoul.o(.text) for _strtoul
    strtol.o(.text) refers to errno.o(i.__aeabi_errno_addr) for __aeabi_errno_addr
    depilogue.o(.text) refers to depilogue.o(i.__ARM_clz) for __ARM_clz
    depilogue.o(.text) refers to llshl.o(.text) for __aeabi_llsl
    depilogue.o(.text) refers to llushr.o(.text) for __aeabi_llsr
    dfixul.o(.text) refers to llushr.o(.text) for __aeabi_llsr
    dfixul.o(.text) refers to llshl.o(.text) for __aeabi_llsl
    init.o(.text) refers to entry5.o(.ARM.Collect$$$$00000004) for __main_after_scatterload
    ctype_o.o(.text) refers to ctype_o.o(.constdata) for .constdata
    ctype_o.o(.constdata) refers to ctype_o.o(.constdata) for __ctype_table
    isalnum_o.o(.text) refers to ctype_o.o(.text) for __rt_ctype_table
    isalpha_o.o(.text) refers to ctype_o.o(.text) for __rt_ctype_table
    isblank_o.o(.text) refers to ctype_o.o(.constdata) for __ctype_table
    iscntrl_o.o(.text) refers to ctype_o.o(.text) for __rt_ctype_table
    isdigit_o.o(.text) refers to ctype_o.o(.text) for __rt_ctype_table
    isgraph_o.o(.text) refers to ctype_o.o(.text) for __rt_ctype_table
    islower_o.o(.text) refers to ctype_o.o(.text) for __rt_ctype_table
    isprint_o.o(.text) refers to ctype_o.o(.text) for __rt_ctype_table
    ispunct_o.o(.text) refers to ctype_o.o(.text) for __rt_ctype_table
    isspace_o.o(.text) refers to ctype_o.o(.text) for __rt_ctype_table
    isupper_o.o(.text) refers to ctype_o.o(.text) for __rt_ctype_table
    isxdigit_o.o(.text) refers to ctype_o.o(.text) for __rt_ctype_table
    _strtoul.o(.text) refers to _chval.o(.text) for _chval
    _strtoul.o(.text) refers to errno.o(i.__aeabi_errno_addr) for __aeabi_errno_addr


==============================================================================

Removing Unused input sections from the image.

    Removing startup.o(HEAP), (0 bytes).
    Removing app_main.o(.rev16_text), (4 bytes).
    Removing app_main.o(.revsh_text), (4 bytes).
    Removing app_main.o(i.assert_param), (8 bytes).
    Removing app_main.o(i.assert_warn), (52 bytes).
    Removing system.o(.rev16_text), (4 bytes).
    Removing system.o(.revsh_text), (4 bytes).
    Removing usr_design.o(.rev16_text), (4 bytes).
    Removing usr_design.o(.revsh_text), (4 bytes).
    Removing usr_design.o(i.app_stored_meas_indicate), (8 bytes).
    Removing app_util.o(.rev16_text), (4 bytes).
    Removing app_util.o(.revsh_text), (4 bytes).
    Removing app_util.o(i.app_check_update_conn_param), (4 bytes).
    Removing app_util.o(i.app_get_conhdl_by_bdaddr), (152 bytes).
    Removing app_env.o(.rev16_text), (4 bytes).
    Removing app_env.o(.revsh_text), (4 bytes).
    Removing app_printf.o(.rev16_text), (4 bytes).
    Removing app_printf.o(.revsh_text), (4 bytes).
    Removing app_printf.o(i.eaddr), (128 bytes).
    Removing app_printf.o(i.iaddr), (188 bytes).
    Removing app_printf.o(i.number), (324 bytes).
    Removing app_printf.o(i.qsprintf), (600 bytes).
    Removing app_printf.o(i.qtrace), (128 bytes).
    Removing app_printf.o(i.skip_atoi), (32 bytes).
    Removing app_printf.o(.bss), (128 bytes).
    Removing app_printf.o(.conststring), (77 bytes).
    Removing app_printf.o(.data), (8 bytes).
    Removing app_sys.o(.rev16_text), (4 bytes).
    Removing app_sys.o(.revsh_text), (4 bytes).
    Removing app_task.o(.rev16_text), (4 bytes).
    Removing app_task.o(.revsh_text), (4 bytes).
    Removing app_gap.o(.rev16_text), (4 bytes).
    Removing app_gap.o(.revsh_text), (4 bytes).
    Removing app_gap.o(i.app_gap_bond_req), (84 bytes).
    Removing app_gap.o(i.app_gap_reset_req), (20 bytes).
    Removing app_gap.o(i.app_gap_security_req), (128 bytes).
    Removing app_gap.o(i.app_gap_set_devname_req), (52 bytes).
    Removing app_gap.o(i.app_gap_set_privacy_req), (44 bytes).
    Removing app_gap.o(i.app_gap_set_random_addr_req), (44 bytes).
    Removing app_gap.o(i.app_gap_unpair_req), (56 bytes).
    Removing app_gap_task.o(.rev16_text), (4 bytes).
    Removing app_gap_task.o(.revsh_text), (4 bytes).
    Removing app_gap_task.o(i.app_correct_rssi), (76 bytes).
    Removing app_gap_task.o(i.app_device_setup), (10 bytes).
    Removing app_gatt.o(.rev16_text), (4 bytes).
    Removing app_gatt.o(.revsh_text), (4 bytes).
    Removing app_gatt_task.o(.rev16_text), (4 bytes).
    Removing app_gatt_task.o(.revsh_text), (4 bytes).
    Removing app_smp.o(.rev16_text), (4 bytes).
    Removing app_smp.o(.revsh_text), (4 bytes).
    Removing app_smp.o(i.app_smpc_start_enc_req), (72 bytes).
    Removing app_smp_task.o(.rev16_text), (4 bytes).
    Removing app_smp_task.o(.revsh_text), (4 bytes).
    Removing app_htpt.o(.rev16_text), (4 bytes).
    Removing app_htpt.o(.revsh_text), (4 bytes).
    Removing app_htpt.o(i.app_htpt_temp_type_send), (36 bytes).
    Removing app_htpt_task.o(.rev16_text), (4 bytes).
    Removing app_htpt_task.o(.revsh_text), (4 bytes).
    Removing app_diss.o(.rev16_text), (4 bytes).
    Removing app_diss.o(.revsh_text), (4 bytes).
    Removing app_diss_task.o(.rev16_text), (4 bytes).
    Removing app_diss_task.o(.revsh_text), (4 bytes).
    Removing prf_utils.o(.rev16_text), (4 bytes).
    Removing prf_utils.o(.revsh_text), (4 bytes).
    Removing prf_utils.o(i.prf_unpack_date_time), (34 bytes).
    Removing htpt.o(.rev16_text), (4 bytes).
    Removing htpt.o(.revsh_text), (4 bytes).
    Removing htpt_task.o(.rev16_text), (4 bytes).
    Removing htpt_task.o(.revsh_text), (4 bytes).
    Removing diss.o(.rev16_text), (4 bytes).
    Removing diss.o(.revsh_text), (4 bytes).
    Removing diss_task.o(.rev16_text), (4 bytes).
    Removing diss_task.o(.revsh_text), (4 bytes).
    Removing uart.o(.rev16_text), (4 bytes).
    Removing uart.o(.revsh_text), (4 bytes).
    Removing uart.o(i.UartGetc), (20 bytes).
    Removing uart.o(i.uart_dump_register), (48 bytes).
    Removing uart.o(i.uart_finish_transfers), (8 bytes).
    Removing uart.o(i.uart_flow_off), (216 bytes).
    Removing uart.o(i.uart_flow_on), (60 bytes).
    Removing uart.o(i.uart_printf), (20 bytes).
    Removing uart.o(i.uart_read), (96 bytes).
    Removing uart.o(i.uart_write), (96 bytes).
    Removing gpio.o(.rev16_text), (4 bytes).
    Removing gpio.o(.revsh_text), (4 bytes).
    Removing gpio.o(i.gpio_disable_interrupt), (10 bytes).
    Removing gpio.o(i.gpio_pull_set), (104 bytes).
    Removing gpio.o(i.gpio_set_interrupt), (40 bytes).
    Removing gpio.o(i.gpio_toggle_pin), (14 bytes).
    Removing gpio.o(i.gpio_write_pin_field), (18 bytes).
    Removing sleep.o(.rev16_text), (4 bytes).
    Removing sleep.o(.revsh_text), (4 bytes).
    Removing sleep.o(i.enter_low_power_mode), (100 bytes).
    Removing sleep.o(i.restore_from_low_power_mode), (76 bytes).
    Removing sleep.o(i.wakeup_by_gpio), (64 bytes).
    Removing syscon.o(.rev16_text), (4 bytes).
    Removing syscon.o(.revsh_text), (4 bytes).
    Removing syscon.o(i.syscon_enable_transceiver), (44 bytes).
    Removing syscon.o(i.syscon_get_ahb_clk), (36 bytes).
    Removing syscon.o(i.syscon_get_apb_clk), (36 bytes).
    Removing syscon.o(i.syscon_get_reset_cause), (82 bytes).
    Removing bletime.o(.rev16_text), (4 bytes).
    Removing bletime.o(.revsh_text), (4 bytes).
    Removing adc.o(.rev16_text), (4 bytes).
    Removing adc.o(.revsh_text), (4 bytes).
    Removing adc.o(i.ADC_RESULT_mV), (48 bytes).
    Removing adc.o(i.adc_buf_gain_set), (20 bytes).
    Removing adc.o(i.adc_buf_in_set), (44 bytes).
    Removing adc.o(i.adc_compare_init), (48 bytes).
    Removing adc.o(i.adc_decimation_enable), (28 bytes).
    Removing analog.o(.rev16_text), (4 bytes).
    Removing analog.o(.revsh_text), (4 bytes).
    Removing analog.o(i.battery_monitor_enable), (16 bytes).
    Removing analog.o(i.brown_out_enable), (16 bytes).
    Removing analog.o(i.comparator_enable), (76 bytes).
    Removing analog.o(i.comparator_init), (100 bytes).
    Removing wdt.o(.rev16_text), (4 bytes).
    Removing wdt.o(.revsh_text), (4 bytes).
    Removing wdt.o(i.wdt_init), (84 bytes).
    Removing wdt.o(i.wdt_lock), (12 bytes).
    Removing wdt.o(i.wdt_set), (28 bytes).
    Removing wdt.o(i.wdt_unlock), (16 bytes).
    Removing timer.o(.rev16_text), (4 bytes).
    Removing timer.o(.revsh_text), (4 bytes).
    Removing timer.o(i.NVIC_EnableIRQ), (20 bytes).
    Removing timer.o(i.timer_capture_config), (124 bytes).
    Removing timer.o(i.timer_config), (72 bytes).
    Removing timer.o(i.timer_delay), (112 bytes).
    Removing timer.o(i.timer_init), (144 bytes).
    Removing timer.o(i.timer_pwm_config), (80 bytes).
    Removing rtc.o(.rev16_text), (4 bytes).
    Removing rtc.o(.revsh_text), (4 bytes).
    Removing led.o(.rev16_text), (4 bytes).
    Removing led.o(.revsh_text), (4 bytes).
    Removing led.o(i.led_matrix), (46 bytes).
    Removing button.o(.rev16_text), (4 bytes).
    Removing button.o(.revsh_text), (4 bytes).
    Removing button.o(i.check_button_state), (20 bytes).
    Removing retarget.o(i._sys_exit), (2 bytes).
    Removing retarget.o(i._ttywrch), (10 bytes).
    Removing retarget.o(i.ferror), (6 bytes).
    Removing retarget.o(i.fgetc), (12 bytes).
    Removing retarget.o(.data), (4 bytes).
    Removing lib.o(.rev16_text), (4 bytes).
    Removing lib.o(.revsh_text), (4 bytes).
    Removing lib.o(i.__nvds_put), (356 bytes).
    Removing lib.o(i.atts_svc_create_db_ext), (332 bytes).
    Removing lib.o(i.nvds_purge), (144 bytes).
    Removing lib.o(i.reg_ble_sleep_cb), (12 bytes).
    Removing lib.o(i.reg_eaci_tx_done), (20 bytes).
    Removing lib.o(i.set_ble_program_latency), (36 bytes).
    Removing qnrf.o(.rev16_text), (4 bytes).
    Removing qnrf.o(.revsh_text), (4 bytes).
    Removing qnrf.o(i.rf_set_freq), (108 bytes).
    Removing qnrf.o(i.rf_tx_power_level_get), (76 bytes).
    Removing qnrf.o(i.rf_tx_power_level_set), (152 bytes).
    Removing qnrf.o(.constdata), (337 bytes).

157 unused section(s) (total 6738 bytes) removed from the image.

==============================================================================

Image Symbol Table

    Local Symbols

    Symbol Name                              Value     Ov Type        Size  Object(Section)

    ../clib/../cmprslib/zerorunl.c           0x00000000   Number         0  __dczerorl.o ABSOLUTE
    ../clib/microlib/ctype/ctype.c           0x00000000   Number         0  isalpha_o.o ABSOLUTE
    ../clib/microlib/ctype/ctype.c           0x00000000   Number         0  isblank_o.o ABSOLUTE
    ../clib/microlib/ctype/ctype.c           0x00000000   Number         0  iscntrl_o.o ABSOLUTE
    ../clib/microlib/ctype/ctype.c           0x00000000   Number         0  isdigit_o.o ABSOLUTE
    ../clib/microlib/ctype/ctype.c           0x00000000   Number         0  isgraph_o.o ABSOLUTE
    ../clib/microlib/ctype/ctype.c           0x00000000   Number         0  islower_o.o ABSOLUTE
    ../clib/microlib/ctype/ctype.c           0x00000000   Number         0  isprint_o.o ABSOLUTE
    ../clib/microlib/ctype/ctype.c           0x00000000   Number         0  isalnum_o.o ABSOLUTE
    ../clib/microlib/ctype/ctype.c           0x00000000   Number         0  ctype_o.o ABSOLUTE
    ../clib/microlib/ctype/ctype.c           0x00000000   Number         0  ispunct_o.o ABSOLUTE
    ../clib/microlib/ctype/ctype.c           0x00000000   Number         0  isspace_o.o ABSOLUTE
    ../clib/microlib/ctype/ctype.c           0x00000000   Number         0  isupper_o.o ABSOLUTE
    ../clib/microlib/ctype/ctype.c           0x00000000   Number         0  isxdigit_o.o ABSOLUTE
    ../clib/microlib/division.c              0x00000000   Number         0  uidiv.o ABSOLUTE
    ../clib/microlib/division.c              0x00000000   Number         0  idiv.o ABSOLUTE
    ../clib/microlib/errno.c                 0x00000000   Number         0  errno.o ABSOLUTE
    ../clib/microlib/init/entry.s            0x00000000   Number         0  entry10b.o ABSOLUTE
    ../clib/microlib/init/entry.s            0x00000000   Number         0  entry5.o ABSOLUTE
    ../clib/microlib/init/entry.s            0x00000000   Number         0  entry2.o ABSOLUTE
    ../clib/microlib/init/entry.s            0x00000000   Number         0  entry.o ABSOLUTE
    ../clib/microlib/init/entry.s            0x00000000   Number         0  entry11b.o ABSOLUTE
    ../clib/microlib/init/entry.s            0x00000000   Number         0  entry11a.o ABSOLUTE
    ../clib/microlib/init/entry.s            0x00000000   Number         0  entry10a.o ABSOLUTE
    ../clib/microlib/init/entry.s            0x00000000   Number         0  entry9b.o ABSOLUTE
    ../clib/microlib/init/entry.s            0x00000000   Number         0  entry9a.o ABSOLUTE
    ../clib/microlib/init/entry.s            0x00000000   Number         0  entry8b.o ABSOLUTE
    ../clib/microlib/init/entry.s            0x00000000   Number         0  entry8a.o ABSOLUTE
    ../clib/microlib/init/entry.s            0x00000000   Number         0  entry7b.o ABSOLUTE
    ../clib/microlib/init/entry.s            0x00000000   Number         0  entry7a.o ABSOLUTE
    ../clib/microlib/longlong.c              0x00000000   Number         0  llshl.o ABSOLUTE
    ../clib/microlib/longlong.c              0x00000000   Number         0  llushr.o ABSOLUTE
    ../clib/microlib/longlong.c              0x00000000   Number         0  llsshr.o ABSOLUTE
    ../clib/microlib/printf/printf.c         0x00000000   Number         0  printf0.o ABSOLUTE
    ../clib/microlib/printf/printf.c         0x00000000   Number         0  printf1.o ABSOLUTE
    ../clib/microlib/printf/printf.c         0x00000000   Number         0  printf2.o ABSOLUTE
    ../clib/microlib/printf/printf.c         0x00000000   Number         0  printf3.o ABSOLUTE
    ../clib/microlib/printf/printf.c         0x00000000   Number         0  printf4.o ABSOLUTE
    ../clib/microlib/printf/printf.c         0x00000000   Number         0  printf5.o ABSOLUTE
    ../clib/microlib/printf/printf.c         0x00000000   Number         0  printf6.o ABSOLUTE
    ../clib/microlib/printf/printf.c         0x00000000   Number         0  printfb.o ABSOLUTE
    ../clib/microlib/printf/printf.c         0x00000000   Number         0  printf8.o ABSOLUTE
    ../clib/microlib/printf/printf.c         0x00000000   Number         0  printfa.o ABSOLUTE
    ../clib/microlib/printf/printf.c         0x00000000   Number         0  printf7.o ABSOLUTE
    ../clib/microlib/printf/stubs.s          0x00000000   Number         0  stubs.o ABSOLUTE
    ../clib/microlib/stdlib/rand.c           0x00000000   Number         0  rand.o ABSOLUTE
    ../clib/microlib/string/memcmp.c         0x00000000   Number         0  memcmp.o ABSOLUTE
    ../clib/microlib/string/memcpy.c         0x00000000   Number         0  memcpyb.o ABSOLUTE
    ../clib/microlib/string/memcpy.c         0x00000000   Number         0  memcpya.o ABSOLUTE
    ../clib/microlib/string/memset.c         0x00000000   Number         0  memseta.o ABSOLUTE
    ../clib/microlib/string/strcpy.c         0x00000000   Number         0  strcpy.o ABSOLUTE
    ../clib/microlib/stubs.s                 0x00000000   Number         0  iusefp.o ABSOLUTE
    ../clib/microlib/stubs.s                 0x00000000   Number         0  useno.o ABSOLUTE
    ../clib/microlib/time/localtime.c        0x00000000   Number         0  localtime_w.o ABSOLUTE
    ../clib/microlib/time/localtime.c        0x00000000   Number         0  localtime_i.o ABSOLUTE
    ../clib/microlib/time/localtime.c        0x00000000   Number         0  localtime.o ABSOLUTE
    ../clib/microlib/time/mktime.c           0x00000000   Number         0  mktime.o ABSOLUTE
    ../clib/microlib/unhosted.c              0x00000000   Number         0  uread4.o ABSOLUTE
    ../clib/scanf.c                          0x00000000   Number         0  strtol.o ABSOLUTE
    ../clib/scanf.c                          0x00000000   Number         0  atoi.o ABSOLUTE
    ../clib/scanf.c                          0x00000000   Number         0  _strtoul.o ABSOLUTE
    ../clib/scanf.c                          0x00000000   Number         0  _chval.o ABSOLUTE
    ../fplib/microlib/fpadd.c                0x00000000   Number         0  dadd.o ABSOLUTE
    ../fplib/microlib/fpdiv.c                0x00000000   Number         0  ddiv.o ABSOLUTE
    ../fplib/microlib/fpepilogue.c           0x00000000   Number         0  depilogue.o ABSOLUTE
    ../fplib/microlib/fpfix.c                0x00000000   Number         0  dfixul.o ABSOLUTE
    ../fplib/microlib/fpfix.c                0x00000000   Number         0  dfixi.o ABSOLUTE
    ../fplib/microlib/fpflt.c                0x00000000   Number         0  dflti.o ABSOLUTE
    ../fplib/microlib/fpmul.c                0x00000000   Number         0  dmul.o ABSOLUTE
    ..\..\src\app\app_env.c                  0x00000000   Number         0  app_env.o ABSOLUTE
    ..\..\src\app\app_printf.c               0x00000000   Number         0  app_printf.o ABSOLUTE
    ..\..\src\app\app_sys.c                  0x00000000   Number         0  app_sys.o ABSOLUTE
    ..\..\src\app\app_task.c                 0x00000000   Number         0  app_task.o ABSOLUTE
    ..\..\src\app\app_util.c                 0x00000000   Number         0  app_util.o ABSOLUTE
    ..\..\src\app\diss\app_diss.c            0x00000000   Number         0  app_diss.o ABSOLUTE
    ..\..\src\app\diss\app_diss_task.c       0x00000000   Number         0  app_diss_task.o ABSOLUTE
    ..\..\src\app\gap\app_gap.c              0x00000000   Number         0  app_gap.o ABSOLUTE
    ..\..\src\app\gap\app_gap_task.c         0x00000000   Number         0  app_gap_task.o ABSOLUTE
    ..\..\src\app\gatt\app_gatt.c            0x00000000   Number         0  app_gatt.o ABSOLUTE
    ..\..\src\app\gatt\app_gatt_task.c       0x00000000   Number         0  app_gatt_task.o ABSOLUTE
    ..\..\src\app\htpt\app_htpt.c            0x00000000   Number         0  app_htpt.o ABSOLUTE
    ..\..\src\app\htpt\app_htpt_task.c       0x00000000   Number         0  app_htpt_task.o ABSOLUTE
    ..\..\src\app\smp\app_smp.c              0x00000000   Number         0  app_smp.o ABSOLUTE
    ..\..\src\app\smp\app_smp_task.c         0x00000000   Number         0  app_smp_task.o ABSOLUTE
    ..\..\src\driver\adc.c                   0x00000000   Number         0  adc.o ABSOLUTE
    ..\..\src\driver\analog.c                0x00000000   Number         0  analog.o ABSOLUTE
    ..\..\src\driver\bletime.c               0x00000000   Number         0  bletime.o ABSOLUTE
    ..\..\src\driver\gpio.c                  0x00000000   Number         0  gpio.o ABSOLUTE
    ..\..\src\driver\rtc.c                   0x00000000   Number         0  rtc.o ABSOLUTE
    ..\..\src\driver\sleep.c                 0x00000000   Number         0  sleep.o ABSOLUTE
    ..\..\src\driver\syscon.c                0x00000000   Number         0  syscon.o ABSOLUTE
    ..\..\src\driver\timer.c                 0x00000000   Number         0  timer.o ABSOLUTE
    ..\..\src\driver\uart.c                  0x00000000   Number         0  uart.o ABSOLUTE
    ..\..\src\driver\wdt.c                   0x00000000   Number         0  wdt.o ABSOLUTE
    ..\..\src\lib\lib.c                      0x00000000   Number         0  lib.o ABSOLUTE
    ..\..\src\lib\math.s                     0x00000000   Number         0  math.o ABSOLUTE
    ..\..\src\lib\qnrf.c                     0x00000000   Number         0  qnrf.o ABSOLUTE
    ..\..\src\main\app_main.c                0x00000000   Number         0  app_main.o ABSOLUTE
    ..\..\src\profiles\dis\diss\diss.c       0x00000000   Number         0  diss.o ABSOLUTE
    ..\..\src\profiles\dis\diss\diss_task.c  0x00000000   Number         0  diss_task.o ABSOLUTE
    ..\..\src\profiles\htp\htpt\htpt.c       0x00000000   Number         0  htpt.o ABSOLUTE
    ..\..\src\profiles\htp\htpt\htpt_task.c  0x00000000   Number         0  htpt_task.o ABSOLUTE
    ..\..\src\profiles\prf_utils.c           0x00000000   Number         0  prf_utils.o ABSOLUTE
    ..\..\src\qnevb\button.c                 0x00000000   Number         0  button.o ABSOLUTE
    ..\..\src\qnevb\led.c                    0x00000000   Number         0  led.o ABSOLUTE
    ..\..\src\retarget\retarget.c            0x00000000   Number         0  retarget.o ABSOLUTE
    ..\..\src\startup\keil\startup.s         0x00000000   Number         0  startup.o ABSOLUTE
    ..\\..\\src\\app\\app_env.c              0x00000000   Number         0  app_env.o ABSOLUTE
    ..\\..\\src\\app\\app_printf.c           0x00000000   Number         0  app_printf.o ABSOLUTE
    ..\\..\\src\\app\\app_sys.c              0x00000000   Number         0  app_sys.o ABSOLUTE
    ..\\..\\src\\app\\app_task.c             0x00000000   Number         0  app_task.o ABSOLUTE
    ..\\..\\src\\app\\app_util.c             0x00000000   Number         0  app_util.o ABSOLUTE
    ..\\..\\src\\app\\diss\\app_diss.c       0x00000000   Number         0  app_diss.o ABSOLUTE
    ..\\..\\src\\app\\diss\\app_diss_task.c  0x00000000   Number         0  app_diss_task.o ABSOLUTE
    ..\\..\\src\\app\\gap\\app_gap.c         0x00000000   Number         0  app_gap.o ABSOLUTE
    ..\\..\\src\\app\\gap\\app_gap_task.c    0x00000000   Number         0  app_gap_task.o ABSOLUTE
    ..\\..\\src\\app\\gatt\\app_gatt.c       0x00000000   Number         0  app_gatt.o ABSOLUTE
    ..\\..\\src\\app\\gatt\\app_gatt_task.c  0x00000000   Number         0  app_gatt_task.o ABSOLUTE
    ..\\..\\src\\app\\htpt\\app_htpt.c       0x00000000   Number         0  app_htpt.o ABSOLUTE
    ..\\..\\src\\app\\htpt\\app_htpt_task.c  0x00000000   Number         0  app_htpt_task.o ABSOLUTE
    ..\\..\\src\\app\\smp\\app_smp.c         0x00000000   Number         0  app_smp.o ABSOLUTE
    ..\\..\\src\\app\\smp\\app_smp_task.c    0x00000000   Number         0  app_smp_task.o ABSOLUTE
    ..\\..\\src\\driver\\adc.c               0x00000000   Number         0  adc.o ABSOLUTE
    ..\\..\\src\\driver\\analog.c            0x00000000   Number         0  analog.o ABSOLUTE
    ..\\..\\src\\driver\\bletime.c           0x00000000   Number         0  bletime.o ABSOLUTE
    ..\\..\\src\\driver\\gpio.c              0x00000000   Number         0  gpio.o ABSOLUTE
    ..\\..\\src\\driver\\rtc.c               0x00000000   Number         0  rtc.o ABSOLUTE
    ..\\..\\src\\driver\\sleep.c             0x00000000   Number         0  sleep.o ABSOLUTE
    ..\\..\\src\\driver\\syscon.c            0x00000000   Number         0  syscon.o ABSOLUTE
    ..\\..\\src\\driver\\timer.c             0x00000000   Number         0  timer.o ABSOLUTE
    ..\\..\\src\\driver\\uart.c              0x00000000   Number         0  uart.o ABSOLUTE
    ..\\..\\src\\driver\\wdt.c               0x00000000   Number         0  wdt.o ABSOLUTE
    ..\\..\\src\\lib\\lib.c                  0x00000000   Number         0  lib.o ABSOLUTE
    ..\\..\\src\\lib\\qnrf.c                 0x00000000   Number         0  qnrf.o ABSOLUTE
    ..\\..\\src\\main\\app_main.c            0x00000000   Number         0  app_main.o ABSOLUTE
    ..\\..\\src\\profiles\\dis\\diss\\diss.c 0x00000000   Number         0  diss.o ABSOLUTE
    ..\\..\\src\\profiles\\dis\\diss\\diss_task.c 0x00000000   Number         0  diss_task.o ABSOLUTE
    ..\\..\\src\\profiles\\htp\\htpt\\htpt.c 0x00000000   Number         0  htpt.o ABSOLUTE
    ..\\..\\src\\profiles\\htp\\htpt\\htpt_task.c 0x00000000   Number         0  htpt_task.o ABSOLUTE
    ..\\..\\src\\profiles\\prf_utils.c       0x00000000   Number         0  prf_utils.o ABSOLUTE
    ..\\..\\src\\qnevb\\button.c             0x00000000   Number         0  button.o ABSOLUTE
    ..\\..\\src\\qnevb\\led.c                0x00000000   Number         0  led.o ABSOLUTE
    ..\\src\\system.c                        0x00000000   Number         0  system.o ABSOLUTE
    ..\\src\\usr_design.c                    0x00000000   Number         0  usr_design.o ABSOLUTE
    ..\src\system.c                          0x00000000   Number         0  system.o ABSOLUTE
    ..\src\usr_design.c                      0x00000000   Number         0  usr_design.o ABSOLUTE
    cdrcmple.s                               0x00000000   Number         0  cdrcmple.o ABSOLUTE
    dc.s                                     0x00000000   Number         0  dc.o ABSOLUTE
    handlers.s                               0x00000000   Number         0  handlers.o ABSOLUTE
    init.s                                   0x00000000   Number         0  init.o ABSOLUTE
    RESET                                    0x10000000   Section      192  startup.o(RESET)
    .ARM.Collect$$$$00000000                 0x100000c0   Section        0  entry.o(.ARM.Collect$$$$00000000)
    .ARM.Collect$$$$00000001                 0x100000c0   Section        4  entry2.o(.ARM.Collect$$$$00000001)
    .ARM.Collect$$$$00000004                 0x100000c4   Section        4  entry5.o(.ARM.Collect$$$$00000004)
    .ARM.Collect$$$$00000008                 0x100000c8   Section        0  entry7b.o(.ARM.Collect$$$$00000008)
    .ARM.Collect$$$$0000000A                 0x100000c8   Section        0  entry8b.o(.ARM.Collect$$$$0000000A)
    .ARM.Collect$$$$0000000B                 0x100000c8   Section        8  entry9a.o(.ARM.Collect$$$$0000000B)
    .ARM.Collect$$$$0000000D                 0x100000d0   Section        0  entry10a.o(.ARM.Collect$$$$0000000D)
    .ARM.Collect$$$$0000000F                 0x100000d0   Section        0  entry11a.o(.ARM.Collect$$$$0000000F)
    .ARM.Collect$$$$00002712                 0x100000d0   Section        4  entry2.o(.ARM.Collect$$$$00002712)
    __lit__00000000                          0x100000d0   Data           4  entry2.o(.ARM.Collect$$$$00002712)
    .text                                    0x100000d4   Section       48  startup.o(.text)
    .text                                    0x10000104   Section      430  math.o(.text)
    .text                                    0x100002b2   Section        0  uidiv.o(.text)
    .text                                    0x100002de   Section        0  idiv.o(.text)
    .text                                    0x10000306   Section        0  llsshr.o(.text)
    .text                                    0x1000032c   Section        0  rand.o(.text)
    .text                                    0x10000350   Section        0  mktime.o(.text)
    .text                                    0x100003dc   Section        0  memcpya.o(.text)
    .text                                    0x10000400   Section        0  memseta.o(.text)
    .text                                    0x10000424   Section        0  memcmp.o(.text)
    .text                                    0x1000043e   Section        0  strcpy.o(.text)
    .text                                    0x10000450   Section        0  uread4.o(.text)
    .text                                    0x10000464   Section        0  atoi.o(.text)
    .text                                    0x10000480   Section        0  dadd.o(.text)
    .text                                    0x100005e4   Section        0  dmul.o(.text)
    .text                                    0x100006b4   Section        0  ddiv.o(.text)
    .text                                    0x100007a4   Section        0  dflti.o(.text)
    .text                                    0x100007cc   Section        0  dfixi.o(.text)
    .text                                    0x10000814   Section        0  llshl.o(.text)
    .text                                    0x10000834   Section        0  llushr.o(.text)
    .text                                    0x10000858   Section        0  localtime_w.o(.text)
    .text                                    0x10000868   Section        0  localtime_i.o(.text)
    .text                                    0x100008dc   Section        0  strtol.o(.text)
    .text                                    0x1000094c   Section        0  depilogue.o(.text)
    .text                                    0x1000094c   Section        0  iusefp.o(.text)
    .text                                    0x10000a0c   Section        0  dfixul.o(.text)
    .text                                    0x10000a4c   Section       40  cdrcmple.o(.text)
    .text                                    0x10000a74   Section       36  init.o(.text)
    .text                                    0x10000a98   Section        0  ctype_o.o(.text)
    .text                                    0x10000aa0   Section        0  _strtoul.o(.text)
    .text                                    0x10000b46   Section        0  _chval.o(.text)
    .text                                    0x10000b64   Section        0  __dczerorl.o(.text)
    i.ADC_IRQHandler                         0x10000ba0   Section        0  adc.o(i.ADC_IRQHandler)
    i.BLE_IRQHandler                         0x10000c74   Section        0  lib.o(i.BLE_IRQHandler)
    i.COMPARATOR0_IRQHandler                 0x10000d20   Section        0  analog.o(i.COMPARATOR0_IRQHandler)
    i.COMPARATOR1_IRQHandler                 0x10000d30   Section        0  analog.o(i.COMPARATOR1_IRQHandler)
    i.GPIO_IRQHandler                        0x10000d40   Section        0  gpio.o(i.GPIO_IRQHandler)
    i.OSC_EN_IRQHandler                      0x10000d68   Section        0  sleep.o(i.OSC_EN_IRQHandler)
    i.SystemInit                             0x10000d7c   Section        0  system.o(i.SystemInit)
    i.TIMER0_IRQHandler                      0x10000e90   Section        0  timer.o(i.TIMER0_IRQHandler)
    i.TIMER1_IRQHandler                      0x10000ec4   Section        0  timer.o(i.TIMER1_IRQHandler)
    i.TIMER2_IRQHandler                      0x10000ef8   Section        0  timer.o(i.TIMER2_IRQHandler)
    i.TIMER3_IRQHandler                      0x10000f2c   Section        0  timer.o(i.TIMER3_IRQHandler)
    i.UART0_RX_IRQHandler                    0x10000f60   Section        0  uart.o(i.UART0_RX_IRQHandler)
    i.UART0_TX_IRQHandler                    0x10000fc4   Section        0  uart.o(i.UART0_TX_IRQHandler)
    i.UartPutc                               0x10001000   Section        0  uart.o(i.UartPutc)
    i.WDT_IRQHandler                         0x10001018   Section        0  wdt.o(i.WDT_IRQHandler)
    i.__0printf                              0x10001030   Section        0  printfa.o(i.__0printf)
    i.__ARM_clz                              0x10001050   Section        0  depilogue.o(i.__ARM_clz)
    i.__ARM_common_switch8                   0x1000107e   Section        0  app_gap_task.o(i.__ARM_common_switch8)
    i.__adc_calibrate                        0x10001098   Section        0  adc.o(i.__adc_calibrate)
    __adc_calibrate                          0x10001099   Thumb Code   168  adc.o(i.__adc_calibrate)
    i.__aeabi_errno_addr                     0x10001158   Section        0  errno.o(i.__aeabi_errno_addr)
    i.__scatterload_copy                     0x10001160   Section       14  handlers.o(i.__scatterload_copy)
    i.__scatterload_null                     0x1000116e   Section        2  handlers.o(i.__scatterload_null)
    i.__scatterload_zeroinit                 0x10001170   Section       14  handlers.o(i.__scatterload_zeroinit)
    i._fp_digits                             0x10001180   Section        0  printfa.o(i._fp_digits)
    _fp_digits                               0x10001181   Thumb Code   316  printfa.o(i._fp_digits)
    i._printf_core                           0x100012d8   Section        0  printfa.o(i._printf_core)
    _printf_core                             0x100012d9   Thumb Code  1754  printfa.o(i._printf_core)
    i._printf_post_padding                   0x100019c4   Section        0  printfa.o(i._printf_post_padding)
    _printf_post_padding                     0x100019c5   Thumb Code    32  printfa.o(i._printf_post_padding)
    i._printf_pre_padding                    0x100019e4   Section        0  printfa.o(i._printf_pre_padding)
    _printf_pre_padding                      0x100019e5   Thumb Code    44  printfa.o(i._printf_pre_padding)
    i.adc_adc_SetADC0WithMask                0x10001a10   Section        0  adc.o(i.adc_adc_SetADC0WithMask)
    adc_adc_SetADC0WithMask                  0x10001a11   Thumb Code    12  adc.o(i.adc_adc_SetADC0WithMask)
    i.adc_adc_SetADC1WithMask                0x10001a1c   Section        0  adc.o(i.adc_adc_SetADC1WithMask)
    adc_adc_SetADC1WithMask                  0x10001a1d   Thumb Code    12  adc.o(i.adc_adc_SetADC1WithMask)
    i.adc_clean_fifo                         0x10001a28   Section        0  adc.o(i.adc_clean_fifo)
    i.adc_init                               0x10001a3c   Section        0  adc.o(i.adc_init)
    i.adc_offset_get_cb                      0x10001b40   Section        0  adc.o(i.adc_offset_get_cb)
    adc_offset_get_cb                        0x10001b41   Thumb Code     8  adc.o(i.adc_offset_get_cb)
    i.adc_read                               0x10001b4c   Section        0  adc.o(i.adc_read)
    i.adc_sample_complete_callback           0x10001be4   Section        0  usr_design.o(i.adc_sample_complete_callback)
    i.app_add_bonded_dev                     0x10001bf0   Section        0  app_util.o(i.app_add_bonded_dev)
    i.app_button_timer_handler               0x10001c14   Section        0  usr_design.o(i.app_button_timer_handler)
    i.app_char_config_desc_change            0x10001cac   Section        0  usr_design.o(i.app_char_config_desc_change)
    i.app_clear_local_service_flag           0x10001d64   Section        0  app_util.o(i.app_clear_local_service_flag)
    i.app_clear_stored_meas                  0x10001d74   Section        0  usr_design.o(i.app_clear_stored_meas)
    i.app_create_server_service_DB           0x10001d84   Section        0  app_util.o(i.app_create_server_service_DB)
    i.app_diss_create_db                     0x10001da8   Section        0  app_diss.o(i.app_diss_create_db)
    i.app_diss_create_db_cfm_handler         0x10001dc8   Section        0  app_diss_task.o(i.app_diss_create_db_cfm_handler)
    i.app_diss_enable_req                    0x10001ed8   Section        0  app_diss.o(i.app_diss_enable_req)
    i.app_diss_error_ind_handler             0x10001f00   Section        0  app_diss_task.o(i.app_diss_error_ind_handler)
    i.app_enable_server_service              0x10001f04   Section        0  app_util.o(i.app_enable_server_service)
    i.app_event_adc_sample_cmp_handler       0x10001f64   Section        0  usr_design.o(i.app_event_adc_sample_cmp_handler)
    i.app_event_button1_press_handler        0x10001fb8   Section        0  usr_design.o(i.app_event_button1_press_handler)
    i.app_find_bonded_dev                    0x10001fd8   Section        0  app_util.o(i.app_find_bonded_dev)
    i.app_gap_adv_intv_update_timer_handler  0x10002014   Section        0  usr_design.o(i.app_gap_adv_intv_update_timer_handler)
    i.app_gap_adv_req_cmp_evt_handler        0x10002060   Section        0  app_gap_task.o(i.app_gap_adv_req_cmp_evt_handler)
    i.app_gap_adv_start_req                  0x100020a8   Section        0  app_gap.o(i.app_gap_adv_start_req)
    i.app_gap_adv_stop_req                   0x10002130   Section        0  app_gap.o(i.app_gap_adv_stop_req)
    i.app_gap_bond_req_cmp_ind_handler       0x10002154   Section        0  app_gap_task.o(i.app_gap_bond_req_cmp_ind_handler)
    i.app_gap_bond_req_ind_handler           0x100021cc   Section        0  app_gap_task.o(i.app_gap_bond_req_ind_handler)
    i.app_gap_bond_resp                      0x10002228   Section        0  app_gap.o(i.app_gap_bond_resp)
    i.app_gap_change_param_req_cmp_handler   0x10002264   Section        0  app_gap_task.o(i.app_gap_change_param_req_cmp_handler)
    i.app_gap_discon_cmp_evt_handler         0x100022b0   Section        0  app_gap_task.o(i.app_gap_discon_cmp_evt_handler)
    i.app_gap_discon_req                     0x10002364   Section        0  app_gap.o(i.app_gap_discon_req)
    i.app_gap_le_create_conn_req_cmp_evt_handler 0x1000238c   Section        0  app_gap_task.o(i.app_gap_le_create_conn_req_cmp_evt_handler)
    i.app_gap_param_update_req               0x10002430   Section        0  app_gap.o(i.app_gap_param_update_req)
    i.app_gap_param_update_resp_handler      0x10002464   Section        0  app_gap_task.o(i.app_gap_param_update_resp_handler)
    i.app_gap_read_bdaddr_req                0x100024bc   Section        0  app_gap.o(i.app_gap_read_bdaddr_req)
    i.app_gap_read_bdaddr_req_cmp_evt_handler 0x100024d0   Section        0  app_gap_task.o(i.app_gap_read_bdaddr_req_cmp_evt_handler)
    i.app_gap_read_ver_req                   0x10002524   Section        0  app_gap.o(i.app_gap_read_ver_req)
    i.app_gap_read_ver_req_cmp_evt_handler   0x10002538   Section        0  app_gap_task.o(i.app_gap_read_ver_req_cmp_evt_handler)
    i.app_gap_ready_evt_handler              0x1000255c   Section        0  app_gap_task.o(i.app_gap_ready_evt_handler)
    i.app_gap_reset_req_cmp_handler          0x10002574   Section        0  app_gap_task.o(i.app_gap_reset_req_cmp_handler)
    i.app_gap_set_bondable_mode_req          0x10002580   Section        0  app_gap.o(i.app_gap_set_bondable_mode_req)
    i.app_gap_set_devname_req_cmp_evt_handler 0x100025a4   Section        0  app_gap_task.o(i.app_gap_set_devname_req_cmp_evt_handler)
    i.app_gap_set_mode_req_cmp_evt_handler   0x100025d8   Section        0  app_gap_task.o(i.app_gap_set_mode_req_cmp_evt_handler)
    i.app_gap_set_privacy_req_cmp_handler    0x1000266c   Section        0  app_gap_task.o(i.app_gap_set_privacy_req_cmp_handler)
    i.app_gap_set_random_add_req_cmp_handler 0x100026b4   Section        0  app_gap_task.o(i.app_gap_set_random_add_req_cmp_handler)
    i.app_gap_set_sec_req                    0x100026e4   Section        0  app_gap.o(i.app_gap_set_sec_req)
    i.app_gap_set_sec_req_cmp_evt_handler    0x1000270c   Section        0  app_gap_task.o(i.app_gap_set_sec_req_cmp_evt_handler)
    i.app_gatt_resource_access_req_handler   0x10002730   Section        0  app_gap_task.o(i.app_gatt_resource_access_req_handler)
    i.app_get_bd_addr_by_conhdl              0x10002758   Section        0  app_util.o(i.app_get_bd_addr_by_conhdl)
    i.app_get_bond_nb                        0x10002798   Section        0  app_util.o(i.app_get_bond_nb)
    i.app_get_bond_status                    0x100027a4   Section        0  app_util.o(i.app_get_bond_status)
    i.app_get_celsius_temperature            0x100027c8   Section        0  usr_design.o(i.app_get_celsius_temperature)
    i.app_get_conhdl_by_idx                  0x10002840   Section        0  app_util.o(i.app_get_conhdl_by_idx)
    i.app_get_imeas_notify_data              0x10002868   Section        0  usr_design.o(i.app_get_imeas_notify_data)
    i.app_get_link_status_by_idx             0x100028bc   Section        0  app_util.o(i.app_get_link_status_by_idx)
    i.app_get_lk_sec_status                  0x100028d8   Section        0  app_util.o(i.app_get_lk_sec_status)
    i.app_get_local_service_flag             0x100028fc   Section        0  app_util.o(i.app_get_local_service_flag)
    i.app_get_meas_indicate_data             0x10002904   Section        0  usr_design.o(i.app_get_meas_indicate_data)
    i.app_get_role                           0x100029c4   Section        0  app_util.o(i.app_get_role)
    i.app_htpt_cfg_indntf_ind_handler        0x100029d0   Section        0  app_htpt_task.o(i.app_htpt_cfg_indntf_ind_handler)
    i.app_htpt_create_db                     0x100029dc   Section        0  app_htpt.o(i.app_htpt_create_db)
    i.app_htpt_create_db_cfm_handler         0x10002a04   Section        0  app_htpt_task.o(i.app_htpt_create_db_cfm_handler)
    i.app_htpt_disable_ind_handler           0x10002a18   Section        0  app_htpt_task.o(i.app_htpt_disable_ind_handler)
    i.app_htpt_enable_req                    0x10002a34   Section        0  app_htpt.o(i.app_htpt_enable_req)
    i.app_htpt_error_ind_handler             0x10002a74   Section        0  app_htpt_task.o(i.app_htpt_error_ind_handler)
    i.app_htpt_idle_connection_timeout_timer_handler 0x10002a9c   Section        0  usr_design.o(i.app_htpt_idle_connection_timeout_timer_handler)
    i.app_htpt_meas_intv_chg_ind_handler     0x10002b04   Section        0  app_htpt_task.o(i.app_htpt_meas_intv_chg_ind_handler)
    i.app_htpt_measurement_intv_send         0x10002b54   Section        0  app_htpt.o(i.app_htpt_measurement_intv_send)
    i.app_htpt_period_meas_timer_handler     0x10002b7c   Section        0  usr_design.o(i.app_htpt_period_meas_timer_handler)
    i.app_htpt_temp_send                     0x10002c14   Section        0  app_htpt.o(i.app_htpt_temp_send)
    i.app_htpt_temp_send_cfm_handler         0x10002c44   Section        0  app_htpt_task.o(i.app_htpt_temp_send_cfm_handler)
    i.app_i_to_array                         0x10002c4e   Section        0  app_util.o(i.app_i_to_array)
    i.app_init                               0x10002c74   Section        0  app_env.o(i.app_init)
    i.app_init_local_smp_key                 0x10002cf8   Section        0  app_util.o(i.app_init_local_smp_key)
    i.app_interm_temp_notify                 0x10002d14   Section        0  usr_design.o(i.app_interm_temp_notify)
    i.app_interm_temp_stable_status_reset    0x10002d74   Section        0  usr_design.o(i.app_interm_temp_stable_status_reset)
    i.app_is_interm_temp_stable              0x10002d8c   Section        0  usr_design.o(i.app_is_interm_temp_stable)
    i.app_led_timer_handler                  0x10002df8   Section        0  usr_design.o(i.app_led_timer_handler)
    i.app_param_update                       0x10002e3c   Section        0  usr_design.o(i.app_param_update)
    i.app_send_stored_meas                   0x10002e80   Section        0  usr_design.o(i.app_send_stored_meas)
    i.app_set_adv_data                       0x10002f04   Section        0  app_util.o(i.app_set_adv_data)
    i.app_set_char_val_req                   0x10002f78   Section        0  app_diss.o(i.app_set_char_val_req)
    i.app_set_idle_connection                0x10002fb0   Section        0  usr_design.o(i.app_set_idle_connection)
    i.app_set_link_status_by_conhdl          0x10002fd0   Section        0  app_util.o(i.app_set_link_status_by_conhdl)
    i.app_set_role                           0x10003030   Section        0  app_util.o(i.app_set_role)
    i.app_set_scan_rsp_data                  0x1000303c   Section        0  app_util.o(i.app_set_scan_rsp_data)
    i.app_smp_init                           0x100030c4   Section        0  app_env.o(i.app_smp_init)
    app_smp_init                             0x100030c5   Thumb Code   240  app_env.o(i.app_smp_init)
    i.app_smpc_chk_bd_addr_req_ind_handler   0x100031fc   Section        0  app_smp_task.o(i.app_smpc_chk_bd_addr_req_ind_handler)
    i.app_smpc_chk_bd_addr_req_rsp           0x10003244   Section        0  app_smp.o(i.app_smpc_chk_bd_addr_req_rsp)
    i.app_smpc_irk_req_ind_handler           0x10003284   Section        0  app_smp_task.o(i.app_smpc_irk_req_ind_handler)
    i.app_smpc_irk_req_rsp                   0x1000333c   Section        0  app_smp.o(i.app_smpc_irk_req_rsp)
    i.app_smpc_key_ind_handler               0x10003388   Section        0  app_smp_task.o(i.app_smpc_key_ind_handler)
    i.app_smpc_ltk_req_ind_handler           0x10003434   Section        0  app_smp_task.o(i.app_smpc_ltk_req_ind_handler)
    i.app_smpc_ltk_req_rsp                   0x10003518   Section        0  app_smp.o(i.app_smpc_ltk_req_rsp)
    i.app_smpc_sec_started_ind_handler       0x1000356c   Section        0  app_smp_task.o(i.app_smpc_sec_started_ind_handler)
    i.app_smpc_timeout_evt_handler           0x10003598   Section        0  app_smp_task.o(i.app_smpc_timeout_evt_handler)
    i.app_smpc_tk_req_ind_handler            0x100035dc   Section        0  app_smp_task.o(i.app_smpc_tk_req_ind_handler)
    i.app_smpc_tk_req_rsp                    0x10003660   Section        0  app_smp.o(i.app_smpc_tk_req_rsp)
    i.app_smpm_set_key_cfm_handler           0x1000369c   Section        0  app_smp_task.o(i.app_smpm_set_key_cfm_handler)
    i.app_smpm_set_key_req                   0x100036c0   Section        0  app_smp.o(i.app_smpm_set_key_req)
    i.app_start_adv                          0x100036f4   Section        0  usr_design.o(i.app_start_adv)
    i.app_store_meas_fifo_in                 0x10003740   Section        0  usr_design.o(i.app_store_meas_fifo_in)
    app_store_meas_fifo_in                   0x10003741   Thumb Code    52  usr_design.o(i.app_store_meas_fifo_in)
    i.app_sys_time_check_timer_handler       0x1000377c   Section        0  bletime.o(i.app_sys_time_check_timer_handler)
    i.app_task_msg_hdl                       0x10003788   Section        0  usr_design.o(i.app_task_msg_hdl)
    i.app_temp_meas_indicate                 0x100038d8   Section        0  usr_design.o(i.app_temp_meas_indicate)
    i.app_uart_init                          0x10003918   Section        0  app_sys.o(i.app_uart_init)
    i.assert_err                             0x1000391c   Section        0  app_main.o(i.assert_err)
    i.atts_req_error_ind_handler_patch       0x10003954   Section        0  lib.o(i.atts_req_error_ind_handler_patch)
    atts_req_error_ind_handler_patch         0x10003955   Thumb Code    58  lib.o(i.atts_req_error_ind_handler_patch)
    i.ble_ext_wakeup_allow                   0x100039a0   Section        0  lib.o(i.ble_ext_wakeup_allow)
    i.ble_hw_sleep                           0x100039c8   Section        0  lib.o(i.ble_hw_sleep)
    i.ble_init                               0x100039dc   Section        0  lib.o(i.ble_init)
    i.ble_sleep                              0x10003aec   Section        0  lib.o(i.ble_sleep)
    i.button_init                            0x10003b1c   Section        0  button.o(i.button_init)
    i.cal_cal_SetCAL0WithMask                0x10003b40   Section        0  lib.o(i.cal_cal_SetCAL0WithMask)
    cal_cal_SetCAL0WithMask                  0x10003b41   Thumb Code    12  lib.o(i.cal_cal_SetCAL0WithMask)
    i.cal_cal_SetCAL1WithMask                0x10003b4c   Section        0  lib.o(i.cal_cal_SetCAL1WithMask)
    cal_cal_SetCAL1WithMask                  0x10003b4d   Thumb Code    12  lib.o(i.cal_cal_SetCAL1WithMask)
    i.check_ble_wakeup                       0x10003b58   Section        0  lib.o(i.check_ble_wakeup)
    i.co_buf_rx_get                          0x10003b6c   Section        0  lib.o(i.co_buf_rx_get)
    i.config_work_mode                       0x10003b7c   Section        0  lib.o(i.config_work_mode)
    i.dc_dc_enable                           0x10003be0   Section        0  lib.o(i.dc_dc_enable)
    i.default_enter_sleep_cb                 0x10003c1c   Section        0  lib.o(i.default_enter_sleep_cb)
    default_enter_sleep_cb                   0x10003c1d   Thumb Code    34  lib.o(i.default_enter_sleep_cb)
    i.default_exit_sleep_cb                  0x10003c48   Section        0  lib.o(i.default_exit_sleep_cb)
    default_exit_sleep_cb                    0x10003c49   Thumb Code    20  lib.o(i.default_exit_sleep_cb)
    i.delay                                  0x10003c64   Section        0  lib.o(i.delay)
    delay                                    0x10003c65   Thumb Code    16  lib.o(i.delay)
    i.diss_check_val_len                     0x10003c74   Section        0  diss.o(i.diss_check_val_len)
    i.diss_compute_cfg_flag                  0x10003c9e   Section        0  diss.o(i.diss_compute_cfg_flag)
    i.diss_create_db_req_handler             0x10003cc4   Section        0  diss_task.o(i.diss_create_db_req_handler)
    diss_create_db_req_handler               0x10003cc5   Thumb Code    88  diss_task.o(i.diss_create_db_req_handler)
    i.diss_disable                           0x10003d38   Section        0  diss.o(i.diss_disable)
    i.diss_enable_req_handler                0x10003d78   Section        0  diss_task.o(i.diss_enable_req_handler)
    diss_enable_req_handler                  0x10003d79   Thumb Code    56  diss_task.o(i.diss_enable_req_handler)
    i.diss_init                              0x10003dc4   Section        0  diss.o(i.diss_init)
    i.diss_set_char_val_req_handler          0x10003de4   Section        0  diss_task.o(i.diss_set_char_val_req_handler)
    diss_set_char_val_req_handler            0x10003de5   Thumb Code    72  diss_task.o(i.diss_set_char_val_req_handler)
    i.dp_dp_SetRegWithMask                   0x10003e38   Section        0  lib.o(i.dp_dp_SetRegWithMask)
    dp_dp_SetRegWithMask                     0x10003e39   Thumb Code    16  lib.o(i.dp_dp_SetRegWithMask)
    i.dp_dp_SetRegWithMask                   0x10003e4c   Section        0  qnrf.o(i.dp_dp_SetRegWithMask)
    dp_dp_SetRegWithMask                     0x10003e4d   Thumb Code    16  qnrf.o(i.dp_dp_SetRegWithMask)
    i.enter_sleep                            0x10003e60   Section        0  sleep.o(i.enter_sleep)
    i.flash_on                               0x10003f44   Section        0  lib.o(i.flash_on)
    flash_on                                 0x10003f45   Thumb Code    28  lib.o(i.flash_on)
    i.foo1                                   0x10003f64   Section        0  lib.o(i.foo1)
    i.fputc                                  0x10003f66   Section        0  retarget.o(i.fputc)
    i.fw_ble_sleep                           0x10003f70   Section        0  lib.o(i.fw_ble_sleep)
    i.gap_discon_cmp_evt_handler             0x1000400c   Section        0  htpt_task.o(i.gap_discon_cmp_evt_handler)
    gap_discon_cmp_evt_handler               0x1000400d   Thumb Code    20  htpt_task.o(i.gap_discon_cmp_evt_handler)
    i.gap_discon_cmp_evt_handler             0x10004024   Section        0  diss_task.o(i.gap_discon_cmp_evt_handler)
    gap_discon_cmp_evt_handler               0x10004025   Thumb Code    20  diss_task.o(i.gap_discon_cmp_evt_handler)
    i.gap_discon_ind_handler_patch           0x1000403c   Section        0  lib.o(i.gap_discon_ind_handler_patch)
    gap_discon_ind_handler_patch             0x1000403d   Thumb Code   128  lib.o(i.gap_discon_ind_handler_patch)
    i.gatt_handle_value_cfm_handler          0x100040e0   Section        0  htpt_task.o(i.gatt_handle_value_cfm_handler)
    gatt_handle_value_cfm_handler            0x100040e1   Thumb Code    14  htpt_task.o(i.gatt_handle_value_cfm_handler)
    i.gatt_notify_cmp_evt_handler            0x100040ee   Section        0  htpt_task.o(i.gatt_notify_cmp_evt_handler)
    gatt_notify_cmp_evt_handler              0x100040ef   Thumb Code    14  htpt_task.o(i.gatt_notify_cmp_evt_handler)
    i.gatt_read_char_req_handler_patch       0x100040fc   Section        0  lib.o(i.gatt_read_char_req_handler_patch)
    gatt_read_char_req_handler_patch         0x100040fd   Thumb Code    58  lib.o(i.gatt_read_char_req_handler_patch)
    i.gatt_write_char_req_handler_patch      0x10004144   Section        0  lib.o(i.gatt_write_char_req_handler_patch)
    gatt_write_char_req_handler_patch        0x10004145   Thumb Code   222  lib.o(i.gatt_write_char_req_handler_patch)
    i.gatt_write_cmd_ind_handler             0x10004240   Section        0  htpt_task.o(i.gatt_write_cmd_ind_handler)
    gatt_write_cmd_ind_handler               0x10004241   Thumb Code   316  htpt_task.o(i.gatt_write_cmd_ind_handler)
    i.get_time_sec                           0x10004390   Section        0  bletime.o(i.get_time_sec)
    i.gpio_enable_interrupt                  0x100043c0   Section        0  gpio.o(i.gpio_enable_interrupt)
    i.gpio_init                              0x100043cc   Section        0  gpio.o(i.gpio_init)
    i.gpio_interrupt_callback                0x100043e8   Section        0  usr_design.o(i.gpio_interrupt_callback)
    i.gpio_read_pin                          0x100043f8   Section        0  gpio.o(i.gpio_read_pin)
    i.gpio_read_pin_field                    0x1000440c   Section        0  gpio.o(i.gpio_read_pin_field)
    i.gpio_set_direction                     0x10004418   Section        0  gpio.o(i.gpio_set_direction)
    i.gpio_set_direction_field               0x10004428   Section        0  gpio.o(i.gpio_set_direction_field)
    i.gpio_sleep_allowed                     0x10004436   Section        0  gpio.o(i.gpio_sleep_allowed)
    i.gpio_wakeup_config                     0x10004454   Section        0  gpio.o(i.gpio_wakeup_config)
    i.gpio_write_pin                         0x100044aa   Section        0  gpio.o(i.gpio_write_pin)
    i.htpt_compute_att_table                 0x100044c0   Section        0  htpt.o(i.htpt_compute_att_table)
    i.htpt_create_db_req_handler             0x100044fc   Section        0  htpt_task.o(i.htpt_create_db_req_handler)
    htpt_create_db_req_handler               0x100044fd   Thumb Code   236  htpt_task.o(i.htpt_create_db_req_handler)
    i.htpt_disable                           0x1000460c   Section        0  htpt.o(i.htpt_disable)
    i.htpt_enable_req_handler                0x100046a4   Section        0  htpt_task.o(i.htpt_enable_req_handler)
    htpt_enable_req_handler                  0x100046a5   Thumb Code   258  htpt_task.o(i.htpt_enable_req_handler)
    i.htpt_get_valid_rge_offset              0x100047c0   Section        0  htpt.o(i.htpt_get_valid_rge_offset)
    i.htpt_init                              0x100047d8   Section        0  htpt.o(i.htpt_init)
    i.htpt_meas_intv_upd_req_handler         0x100047f8   Section        0  htpt_task.o(i.htpt_meas_intv_upd_req_handler)
    htpt_meas_intv_upd_req_handler           0x100047f9   Thumb Code    84  htpt_task.o(i.htpt_meas_intv_upd_req_handler)
    i.htpt_pack_temp_value                   0x10004860   Section        0  htpt.o(i.htpt_pack_temp_value)
    i.htpt_temp_send_cfm_send                0x100048bc   Section        0  htpt.o(i.htpt_temp_send_cfm_send)
    i.htpt_temp_send_req_handler             0x100048ec   Section        0  htpt_task.o(i.htpt_temp_send_req_handler)
    htpt_temp_send_req_handler               0x100048ed   Thumb Code   162  htpt_task.o(i.htpt_temp_send_req_handler)
    i.htpt_temp_type_upd_req_handler         0x100049a0   Section        0  htpt_task.o(i.htpt_temp_type_upd_req_handler)
    htpt_temp_type_upd_req_handler           0x100049a1   Thumb Code    44  htpt_task.o(i.htpt_temp_type_upd_req_handler)
    i.ke_schedule                            0x100049d8   Section        0  lib.o(i.ke_schedule)
    i.ke_time                                0x10004a24   Section        0  lib.o(i.ke_time)
    i.ke_timer_empty                         0x10004a4c   Section        0  lib.o(i.ke_timer_empty)
    i.l2cc_data_packet_ind_handler_patch     0x10004a64   Section        0  lib.o(i.l2cc_data_packet_ind_handler_patch)
    l2cc_data_packet_ind_handler_patch       0x10004a65   Thumb Code    78  lib.o(i.l2cc_data_packet_ind_handler_patch)
    i.l2cc_data_send_rsp_handler_patch       0x10004ac0   Section        0  lib.o(i.l2cc_data_send_rsp_handler_patch)
    l2cc_data_send_rsp_handler_patch         0x10004ac1   Thumb Code    64  lib.o(i.l2cc_data_send_rsp_handler_patch)
    i.led_get                                0x10004b10   Section        0  led.o(i.led_get)
    i.led_init                               0x10004b3e   Section        0  led.o(i.led_init)
    i.led_set                                0x10004b76   Section        0  led.o(i.led_set)
    i.lld_sleep_lpcycles_2_us                0x10004ba0   Section        0  lib.o(i.lld_sleep_lpcycles_2_us)
    lld_sleep_lpcycles_2_us                  0x10004ba1   Thumb Code    50  lib.o(i.lld_sleep_lpcycles_2_us)
    i.main                                   0x10004bdc   Section        0  app_main.o(i.main)
    i.nvds_copy                              0x10004d18   Section        0  lib.o(i.nvds_copy)
    nvds_copy                                0x10004d19   Thumb Code    82  lib.o(i.nvds_copy)
    i.nvds_erase                             0x10004d78   Section        0  lib.o(i.nvds_erase)
    nvds_erase                               0x10004d79   Thumb Code    44  lib.o(i.nvds_erase)
    i.nvds_restore_backup                    0x10004da8   Section        0  lib.o(i.nvds_restore_backup)
    nvds_restore_backup                      0x10004da9   Thumb Code    98  lib.o(i.nvds_restore_backup)
    i.nvds_write                             0x10004e1c   Section        0  lib.o(i.nvds_write)
    nvds_write                               0x10004e1d   Thumb Code    80  lib.o(i.nvds_write)
    i.plf_init                               0x10004e70   Section        0  lib.o(i.plf_init)
    i.plf_reset_cb                           0x10005164   Section        0  lib.o(i.plf_reset_cb)
    plf_reset_cb                             0x10005165   Thumb Code    12  lib.o(i.plf_reset_cb)
    i.powerup_calibration                    0x10005174   Section        0  lib.o(i.powerup_calibration)
    powerup_calibration                      0x10005175   Thumb Code   280  lib.o(i.powerup_calibration)
    i.prf_dispatch_disconnect                0x100052bc   Section        0  prf_utils.o(i.prf_dispatch_disconnect)
    i.prf_init                               0x100052f8   Section        0  prf_utils.o(i.prf_init)
    i.prf_pack_date_time                     0x10005304   Section        0  prf_utils.o(i.prf_pack_date_time)
    i.prf_server_error_ind_send              0x10005324   Section        0  prf_utils.o(i.prf_server_error_ind_send)
    i.qn_time_get                            0x10005350   Section        0  bletime.o(i.qn_time_get)
    i.qn_time_init                           0x10005384   Section        0  bletime.o(i.qn_time_init)
    i.qn_time_set                            0x1000538c   Section        0  bletime.o(i.qn_time_set)
    i.restore_ble_setting                    0x10005400   Section        0  lib.o(i.restore_ble_setting)
    i.rf_enable                              0x10005454   Section        0  qnrf.o(i.rf_enable)
    i.rf_enable_sw_set_freq                  0x100054b0   Section        0  qnrf.o(i.rf_enable_sw_set_freq)
    i.rwble_slot_2_lpcycles                  0x100054d0   Section        0  lib.o(i.rwble_slot_2_lpcycles)
    i.set_dbg_info                           0x100054f4   Section        0  lib.o(i.set_dbg_info)
    i.set_time_sec                           0x10005504   Section        0  bletime.o(i.set_time_sec)
    i.sleep_cb                               0x10005518   Section        0  sleep.o(i.sleep_cb)
    i.sleep_init                             0x10005530   Section        0  sleep.o(i.sleep_init)
    i.sleep_post_process                     0x10005568   Section        0  lib.o(i.sleep_post_process)
    i.spi_clock_off                          0x100055c4   Section        0  system.o(i.spi_clock_off)
    spi_clock_off                            0x100055c5   Thumb Code    34  system.o(i.spi_clock_off)
    i.start_measure_temperature              0x100055f0   Section        0  usr_design.o(i.start_measure_temperature)
    i.syscon_SetADCCRWithMask                0x1000562c   Section        0  adc.o(i.syscon_SetADCCRWithMask)
    syscon_SetADCCRWithMask                  0x1000562d   Thumb Code    14  adc.o(i.syscon_SetADCCRWithMask)
    i.syscon_SetAnalogCRWithMask             0x1000563a   Section        0  analog.o(i.syscon_SetAnalogCRWithMask)
    syscon_SetAnalogCRWithMask               0x1000563b   Thumb Code    14  analog.o(i.syscon_SetAnalogCRWithMask)
    i.syscon_SetCMDCRWithMask                0x10005648   Section        0  sleep.o(i.syscon_SetCMDCRWithMask)
    syscon_SetCMDCRWithMask                  0x10005649   Thumb Code    12  sleep.o(i.syscon_SetCMDCRWithMask)
    i.syscon_SetCMDCRWithMask                0x10005654   Section        0  syscon.o(i.syscon_SetCMDCRWithMask)
    syscon_SetCMDCRWithMask                  0x10005655   Thumb Code    12  syscon.o(i.syscon_SetCMDCRWithMask)
    i.syscon_SetIvrefX32WithMask             0x10005660   Section        0  lib.o(i.syscon_SetIvrefX32WithMask)
    syscon_SetIvrefX32WithMask               0x10005661   Thumb Code    14  lib.o(i.syscon_SetIvrefX32WithMask)
    i.syscon_SetPGCR0WithMask                0x1000566e   Section        0  sleep.o(i.syscon_SetPGCR0WithMask)
    syscon_SetPGCR0WithMask                  0x1000566f   Thumb Code    14  sleep.o(i.syscon_SetPGCR0WithMask)
    i.syscon_SetPGCR1WithMask                0x1000567c   Section        0  lib.o(i.syscon_SetPGCR1WithMask)
    syscon_SetPGCR1WithMask                  0x1000567d   Thumb Code    14  lib.o(i.syscon_SetPGCR1WithMask)
    i.syscon_SetPGCR2WithMask                0x1000568a   Section        0  sleep.o(i.syscon_SetPGCR2WithMask)
    syscon_SetPGCR2WithMask                  0x1000568b   Thumb Code    14  sleep.o(i.syscon_SetPGCR2WithMask)
    i.syscon_set_ahb_clk                     0x10005698   Section        0  syscon.o(i.syscon_set_ahb_clk)
    i.syscon_set_apb_clk                     0x100056d0   Section        0  syscon.o(i.syscon_set_apb_clk)
    i.syscon_set_ble_clk                     0x10005704   Section        0  syscon.o(i.syscon_set_ble_clk)
    i.syscon_set_sysclk_src                  0x10005744   Section        0  syscon.o(i.syscon_set_sysclk_src)
    i.syscon_set_timer_clk                   0x100057fc   Section        0  syscon.o(i.syscon_set_timer_clk)
    i.syscon_set_usart_clk                   0x10005828   Section        0  syscon.o(i.syscon_set_usart_clk)
    i.task_app_desc_register                 0x10005898   Section        0  app_task.o(i.task_app_desc_register)
    i.task_diss_desc_register                0x100058d0   Section        0  diss_task.o(i.task_diss_desc_register)
    i.task_gatt_desc_register                0x10005908   Section        0  lib.o(i.task_gatt_desc_register)
    task_gatt_desc_register                  0x10005909   Thumb Code   124  lib.o(i.task_gatt_desc_register)
    i.task_htpt_desc_register                0x100059cc   Section        0  htpt_task.o(i.task_htpt_desc_register)
    i.temp_sensor_enable                     0x10005a04   Section        0  analog.o(i.temp_sensor_enable)
    i.time_check_trigger                     0x10005a58   Section        0  bletime.o(i.time_check_trigger)
    i.timer_clock_off                        0x10005aa4   Section        0  system.o(i.timer_clock_off)
    timer_clock_off                          0x10005aa5   Thumb Code    52  system.o(i.timer_clock_off)
    i.uart_check_tx_free                     0x10005ae8   Section        0  uart.o(i.uart_check_tx_free)
    i.uart_clock_off                         0x10005b20   Section        0  system.o(i.uart_clock_off)
    uart_clock_off                           0x10005b21   Thumb Code    34  system.o(i.uart_clock_off)
    i.uart_init                              0x10005b4c   Section        0  uart.o(i.uart_init)
    i.uart_tx_int_enable                     0x10005bcc   Section        0  uart.o(i.uart_tx_int_enable)
    uart_tx_int_enable                       0x10005bcd   Thumb Code    46  uart.o(i.uart_tx_int_enable)
    i.usr_button1_cb                         0x10005c04   Section        0  usr_design.o(i.usr_button1_cb)
    i.usr_init                               0x10005c24   Section        0  usr_design.o(i.usr_init)
    i.usr_led1_set                           0x10005c7c   Section        0  usr_design.o(i.usr_led1_set)
    usr_led1_set                             0x10005c7d   Thumb Code    72  usr_design.o(i.usr_led1_set)
    i.usr_sleep                              0x10005cd0   Section        0  sleep.o(i.usr_sleep)
    i.usr_sleep_restore                      0x10005d28   Section        0  usr_design.o(i.usr_sleep_restore)
    i.wakeup_by_sleep_timer                  0x10005d54   Section        0  sleep.o(i.wakeup_by_sleep_timer)
    i.wdt_irq_clear                          0x10005dbc   Section        0  wdt.o(i.wdt_irq_clear)
    .constdata                               0x10005ddc   Section        8  usr_design.o(.constdata)
    .constdata                               0x10005de4   Section      328  app_task.o(.constdata)
    .constdata                               0x10005f2c   Section       48  app_task.o(.constdata)
    .constdata                               0x10005f5c   Section      156  htpt.o(.constdata)
    .constdata                               0x10005ff8   Section        2  htpt.o(.constdata)
    .constdata                               0x10005ffa   Section        5  htpt.o(.constdata)
    .constdata                               0x10005fff   Section        5  htpt.o(.constdata)
    .constdata                               0x10006004   Section        5  htpt.o(.constdata)
    .constdata                               0x10006009   Section        5  htpt.o(.constdata)
    .constdata                               0x10006010   Section        8  htpt_task.o(.constdata)
    .constdata                               0x10006018   Section       16  htpt_task.o(.constdata)
    .constdata                               0x10006028   Section       48  htpt_task.o(.constdata)
    .constdata                               0x10006058   Section        8  htpt_task.o(.constdata)
    .constdata                               0x10006060   Section       32  htpt_task.o(.constdata)
    .constdata                               0x10006080   Section      228  diss.o(.constdata)
    .constdata                               0x10006164   Section        2  diss.o(.constdata)
    .constdata                               0x10006166   Section        5  diss.o(.constdata)
    .constdata                               0x1000616b   Section        5  diss.o(.constdata)
    .constdata                               0x10006170   Section        5  diss.o(.constdata)
    .constdata                               0x10006175   Section        5  diss.o(.constdata)
    .constdata                               0x1000617a   Section        5  diss.o(.constdata)
    .constdata                               0x1000617f   Section        5  diss.o(.constdata)
    .constdata                               0x10006184   Section        5  diss.o(.constdata)
    .constdata                               0x10006189   Section        5  diss.o(.constdata)
    .constdata                               0x1000618e   Section        5  diss.o(.constdata)
    .constdata                               0x10006194   Section        8  diss_task.o(.constdata)
    .constdata                               0x1000619c   Section       16  diss_task.o(.constdata)
    .constdata                               0x100061ac   Section        8  diss_task.o(.constdata)
    .constdata                               0x100061b4   Section       32  diss_task.o(.constdata)
    .constdata                               0x100061d4   Section       51  uart.o(.constdata)
    .constdata                               0x10006208   Section       16  lib.o(.constdata)
    .constdata                               0x10006218   Section       12  mktime.o(.constdata)
    monlen                                   0x10006218   Data          12  mktime.o(.constdata)
    .constdata                               0x10006224   Section       12  localtime_i.o(.constdata)
    monlen                                   0x10006224   Data          12  localtime_i.o(.constdata)
    .constdata                               0x10006230   Section      129  ctype_o.o(.constdata)
    .constdata                               0x100062b4   Section        4  ctype_o.o(.constdata)
    table                                    0x100062b4   Data           4  ctype_o.o(.constdata)
    .conststring                             0x100062b8   Section      214  app_gap_task.o(.conststring)
    .conststring                             0x10006390   Section      173  app_smp_task.o(.conststring)
    .data                                    0x10006470   Section      548  usr_design.o(.data)
    .data                                    0x10006694   Section        2  app_task.o(.data)
    .data                                    0x10006698   Section        4  app_htpt_task.o(.data)
    .data                                    0x1000669c   Section        4  app_diss_task.o(.data)
    .data                                    0x100066a0   Section        2  htpt_task.o(.data)
    .data                                    0x100066a2   Section        2  diss_task.o(.data)
    .data                                    0x100066a4   Section        4  gpio.o(.data)
    gpio_env                                 0x100066a4   Data           4  gpio.o(.data)
    .data                                    0x100066a8   Section       28  sleep.o(.data)
    .data                                    0x100066c4   Section       12  syscon.o(.data)
    .data                                    0x100066d0   Section        8  bletime.o(.data)
    s_pre_tick_count_sec                     0x100066d0   Data           4  bletime.o(.data)
    s_pre_tick_count_10ms                    0x100066d4   Data           4  bletime.o(.data)
    .data                                    0x100066d8   Section       12  adc.o(.data)
    ADC_VCM_flag                             0x100066d8   Data           1  adc.o(.data)
    adc_offset_get_done                      0x100066d9   Data           1  adc.o(.data)
    scan_ch_num                              0x100066da   Data           1  adc.o(.data)
    ADC_SCALE                                0x100066dc   Data           2  adc.o(.data)
    ADC_VCM                                  0x100066de   Data           2  adc.o(.data)
    ADC_OFFSET                               0x100066e0   Data           2  adc.o(.data)
    ADC_VREF                                 0x100066e2   Data           2  adc.o(.data)
    .data                                    0x100066e4   Section       12  analog.o(.data)
    acmp_env0                                0x100066e8   Data           4  analog.o(.data)
    acmp_env1                                0x100066ec   Data           4  analog.o(.data)
    .data                                    0x100066f0   Section        4  wdt.o(.data)
    .data                                    0x100066f4   Section       32  timer.o(.data)
    .data                                    0x10006714   Section        4  retarget.o(.data)
    .data                                    0x10006718   Section       32  lib.o(.data)
    ext_ctrl                                 0x10006718   Data           1  lib.o(.data)
    acc                                      0x10006719   Data           1  lib.o(.data)
    dc_dc_flag                               0x1000671a   Data           1  lib.o(.data)
    l2cm_default_handler                     0x10006728   Data           8  lib.o(.data)
    gatt_default_handler_new                 0x10006730   Data           8  lib.o(.data)
    .data                                    0x10006738   Section        4  rand.o(.data)
    _rand_state                              0x10006738   Data           4  rand.o(.data)
    .data                                    0x1000673c   Section        4  errno.o(.data)
    _errno                                   0x1000673c   Data           4  errno.o(.data)
    .bss                                     0x10006740   Section     1800  app_main.o(.bss)
    ble_heap                                 0x10006740   Data        1800  app_main.o(.bss)
    .bss                                     0x10006e48   Section      252  app_env.o(.bss)
    .bss                                     0x10006f44   Section       14  htpt.o(.bss)
    .bss                                     0x10006f52   Section       18  diss.o(.bss)
    .bss                                     0x10006f64   Section       48  uart.o(.bss)
    uart0_env                                0x10006f64   Data          24  uart.o(.bss)
    uart1_env                                0x10006f7c   Data          24  uart.o(.bss)
    .bss                                     0x10006f94   Section       20  adc.o(.bss)
    adc_env                                  0x10006f94   Data          20  adc.o(.bss)
    .bss                                     0x10006fa8   Section      928  lib.o(.bss)
    gatt_state_handler_new                   0x10006fa8   Data          16  lib.o(.bss)
    atts_resource_init_state_new             0x10006fb8   Data          32  lib.o(.bss)
    atts_state_handler_new                   0x10006fd8   Data          24  lib.o(.bss)
    nvds_temp_buff                           0x10006ff0   Data         256  lib.o(.bss)
    l2cm_default_state_new                   0x100070f0   Data          72  lib.o(.bss)
    gatt_default_state_new                   0x10007238   Data         272  lib.o(.bss)
    .bss                                     0x10007348   Section       44  localtime_w.o(.bss)
    _tms                                     0x10007348   Data          44  localtime_w.o(.bss)
    STACK                                    0x10007378   Section      512  startup.o(STACK)

    Global Symbols

    Symbol Name                              Value     Ov Type        Size  Object(Section)

    BuildAttributes$$THM_ISAv3M$S$PE$A:L22$X:L11$S22$IEEE1$IW$USESV6$~STKCKD$USESV7$~SHL$OSPACE$ROPI$EBA8$MICROLIB$REQ8$PRES8$EABIv2 0x00000000   Number         0  anon$$obj.o ABSOLUTE
    __ARM_use_no_argv                        0x00000000   Number         0  app_main.o ABSOLUTE
    __use_no_errno                           0x00000000   Number         0  useno.o ABSOLUTE
    __use_no_exception_handling              0x00000000   Number         0  useno.o ABSOLUTE
    __use_no_fp                              0x00000000   Number         0  useno.o ABSOLUTE
    __use_no_heap                            0x00000000   Number         0  useno.o ABSOLUTE
    __use_no_heap_region                     0x00000000   Number         0  useno.o ABSOLUTE
    __use_no_semihosting                     0x00000000   Number         0  useno.o ABSOLUTE
    __use_no_semihosting_swi                 0x00000000   Number         0  useno.o ABSOLUTE
    __use_no_signal_handling                 0x00000000   Number         0  useno.o ABSOLUTE
    _printf_a                                0x00000000   Number         0  stubs.o ABSOLUTE
    _printf_c                                0x00000000   Number         0  stubs.o ABSOLUTE
    _printf_charcount                        0x00000000   Number         0  stubs.o ABSOLUTE
    _printf_d                                0x00000000   Number         0  stubs.o ABSOLUTE
    _printf_e                                0x00000000   Number         0  stubs.o ABSOLUTE
    _printf_f                                0x00000000   Number         0  stubs.o ABSOLUTE
    _printf_flags                            0x00000000   Number         0  stubs.o ABSOLUTE
    _printf_fp_dec                           0x00000000   Number         0  stubs.o ABSOLUTE
    _printf_fp_hex                           0x00000000   Number         0  stubs.o ABSOLUTE
    _printf_g                                0x00000000   Number         0  stubs.o ABSOLUTE
    _printf_i                                0x00000000   Number         0  stubs.o ABSOLUTE
    _printf_int_dec                          0x00000000   Number         0  stubs.o ABSOLUTE
    _printf_l                                0x00000000   Number         0  stubs.o ABSOLUTE
    _printf_lc                               0x00000000   Number         0  stubs.o ABSOLUTE
    _printf_ll                               0x00000000   Number         0  stubs.o ABSOLUTE
    _printf_lld                              0x00000000   Number         0  stubs.o ABSOLUTE
    _printf_lli                              0x00000000   Number         0  stubs.o ABSOLUTE
    _printf_llo                              0x00000000   Number         0  stubs.o ABSOLUTE
    _printf_llu                              0x00000000   Number         0  stubs.o ABSOLUTE
    _printf_llx                              0x00000000   Number         0  stubs.o ABSOLUTE
    _printf_longlong_dec                     0x00000000   Number         0  stubs.o ABSOLUTE
    _printf_longlong_hex                     0x00000000   Number         0  stubs.o ABSOLUTE
    _printf_longlong_oct                     0x00000000   Number         0  stubs.o ABSOLUTE
    _printf_ls                               0x00000000   Number         0  stubs.o ABSOLUTE
    _printf_mbtowc                           0x00000000   Number         0  stubs.o ABSOLUTE
    _printf_n                                0x00000000   Number         0  stubs.o ABSOLUTE
    _printf_o                                0x00000000   Number         0  stubs.o ABSOLUTE
    _printf_p                                0x00000000   Number         0  stubs.o ABSOLUTE
    _printf_percent                          0x00000000   Number         0  stubs.o ABSOLUTE
    _printf_pre_padding                      0x00000000   Number         0  stubs.o ABSOLUTE
    _printf_return_value                     0x00000000   Number         0  stubs.o ABSOLUTE
    _printf_s                                0x00000000   Number         0  stubs.o ABSOLUTE
    _printf_sizespec                         0x00000000   Number         0  stubs.o ABSOLUTE
    _printf_str                              0x00000000   Number         0  stubs.o ABSOLUTE
    _printf_truncate_signed                  0x00000000   Number         0  stubs.o ABSOLUTE
    _printf_truncate_unsigned                0x00000000   Number         0  stubs.o ABSOLUTE
    _printf_u                                0x00000000   Number         0  stubs.o ABSOLUTE
    _printf_wc                               0x00000000   Number         0  stubs.o ABSOLUTE
    _printf_wctomb                           0x00000000   Number         0  stubs.o ABSOLUTE
    _printf_widthprec                        0x00000000   Number         0  stubs.o ABSOLUTE
    _printf_x                                0x00000000   Number         0  stubs.o ABSOLUTE
    __cpp_initialize__aeabi_                  - Undefined Weak Reference
    __cxa_finalize                            - Undefined Weak Reference
    _clock_init                               - Undefined Weak Reference
    _microlib_exit                            - Undefined Weak Reference
    __Vectors_Size                           0x000000c0   Number         0  startup.o ABSOLUTE
    __Vectors                                0x10000000   Data           4  startup.o(RESET)
    __Vectors_End                            0x100000c0   Data           0  startup.o(RESET)
    __main                                   0x100000c1   Thumb Code     0  entry.o(.ARM.Collect$$$$00000000)
    _main_stk                                0x100000c1   Thumb Code     0  entry2.o(.ARM.Collect$$$$00000001)
    _main_scatterload                        0x100000c5   Thumb Code     0  entry5.o(.ARM.Collect$$$$00000004)
    __main_after_scatterload                 0x100000c9   Thumb Code     0  entry5.o(.ARM.Collect$$$$00000004)
    _main_clock                              0x100000c9   Thumb Code     0  entry7b.o(.ARM.Collect$$$$00000008)
    _main_cpp_init                           0x100000c9   Thumb Code     0  entry8b.o(.ARM.Collect$$$$0000000A)
    _main_init                               0x100000c9   Thumb Code     0  entry9a.o(.ARM.Collect$$$$0000000B)
    __rt_final_cpp                           0x100000d1   Thumb Code     0  entry10a.o(.ARM.Collect$$$$0000000D)
    __rt_final_exit                          0x100000d1   Thumb Code     0  entry11a.o(.ARM.Collect$$$$0000000F)
    Reset_Handler                            0x100000d5   Thumb Code    14  startup.o(.text)
    NMI_Handler                              0x100000e3   Thumb Code     2  startup.o(.text)
    HardFault_Handler                        0x100000e5   Thumb Code     2  startup.o(.text)
    MemManage_Handler                        0x100000e7   Thumb Code     2  startup.o(.text)
    BusFault_Handler                         0x100000e9   Thumb Code     2  startup.o(.text)
    UsageFault_Handler                       0x100000eb   Thumb Code     2  startup.o(.text)
    SVC_Handler                              0x100000ed   Thumb Code     2  startup.o(.text)
    DebugMon_Handler                         0x100000ef   Thumb Code     2  startup.o(.text)
    PendSV_Handler                           0x100000f1   Thumb Code     2  startup.o(.text)
    SysTick_Handler                          0x100000f3   Thumb Code     2  startup.o(.text)
    CALIB_IRQHandler                         0x100000f5   Thumb Code     0  startup.o(.text)
    DMA_IRQHandler                           0x100000f5   Thumb Code     0  startup.o(.text)
    I2C_IRQHandler                           0x100000f5   Thumb Code     0  startup.o(.text)
    PWM0_IRQHandler                          0x100000f5   Thumb Code     0  startup.o(.text)
    PWM1_IRQHandler                          0x100000f5   Thumb Code     0  startup.o(.text)
    RTC_CAP_IRQHandler                       0x100000f5   Thumb Code     0  startup.o(.text)
    RTC_IRQHandler                           0x100000f5   Thumb Code     0  startup.o(.text)
    SPI0_RX_IRQHandler                       0x100000f5   Thumb Code     0  startup.o(.text)
    SPI0_TX_IRQHandler                       0x100000f5   Thumb Code     0  startup.o(.text)
    SPI1_RX_IRQHandler                       0x100000f5   Thumb Code     0  startup.o(.text)
    SPI1_TX_IRQHandler                       0x100000f5   Thumb Code     0  startup.o(.text)
    TUNER_RX_IRQHandler                      0x100000f5   Thumb Code     0  startup.o(.text)
    TUNER_SETTING_IRQHandler                 0x100000f5   Thumb Code     0  startup.o(.text)
    TUNER_TX_IRQHandler                      0x100000f5   Thumb Code     0  startup.o(.text)
    UART1_RX_IRQHandler                      0x100000f5   Thumb Code     0  startup.o(.text)
    UART1_TX_IRQHandler                      0x100000f5   Thumb Code     0  startup.o(.text)
    __rd_ble_reg                             0x10000105   Thumb Code     4  math.o(.text)
    __wr_ble_reg                             0x10000109   Thumb Code     4  math.o(.text)
    __aeabi_lmul                             0x1000010d   Thumb Code   166  math.o(.text)
    __aeabi_uldivmod                         0x100001b3   Thumb Code   256  math.o(.text)
    __aeabi_uidiv                            0x100002b3   Thumb Code     0  uidiv.o(.text)
    __aeabi_uidivmod                         0x100002b3   Thumb Code    44  uidiv.o(.text)
    __aeabi_idiv                             0x100002df   Thumb Code     0  idiv.o(.text)
    __aeabi_idivmod                          0x100002df   Thumb Code    40  idiv.o(.text)
    __aeabi_lasr                             0x10000307   Thumb Code    38  llsshr.o(.text)
    _ll_sshift_r                             0x10000307   Thumb Code     0  llsshr.o(.text)
    rand                                     0x1000032d   Thumb Code    18  rand.o(.text)
    srand                                    0x1000033f   Thumb Code     6  rand.o(.text)
    mktime                                   0x10000351   Thumb Code   124  mktime.o(.text)
    __aeabi_memcpy                           0x100003dd   Thumb Code    36  memcpya.o(.text)
    __aeabi_memcpy4                          0x100003dd   Thumb Code     0  memcpya.o(.text)
    __aeabi_memcpy8                          0x100003dd   Thumb Code     0  memcpya.o(.text)
    __aeabi_memset                           0x10000401   Thumb Code    14  memseta.o(.text)
    __aeabi_memset4                          0x10000401   Thumb Code     0  memseta.o(.text)
    __aeabi_memset8                          0x10000401   Thumb Code     0  memseta.o(.text)
    __aeabi_memclr                           0x1000040f   Thumb Code     4  memseta.o(.text)
    __aeabi_memclr4                          0x1000040f   Thumb Code     0  memseta.o(.text)
    __aeabi_memclr8                          0x1000040f   Thumb Code     0  memseta.o(.text)
    _memset$wrapper                          0x10000413   Thumb Code    18  memseta.o(.text)
    memcmp                                   0x10000425   Thumb Code    26  memcmp.o(.text)
    strcpy                                   0x1000043f   Thumb Code    18  strcpy.o(.text)
    __aeabi_uread4                           0x10000451   Thumb Code    20  uread4.o(.text)
    __rt_uread4                              0x10000451   Thumb Code     0  uread4.o(.text)
    _uread4                                  0x10000451   Thumb Code     0  uread4.o(.text)
    atoi                                     0x10000465   Thumb Code    26  atoi.o(.text)
    __aeabi_dadd                             0x10000481   Thumb Code   328  dadd.o(.text)
    __aeabi_dsub                             0x100005c9   Thumb Code    12  dadd.o(.text)
    __aeabi_drsub                            0x100005d5   Thumb Code    12  dadd.o(.text)
    __aeabi_dmul                             0x100005e5   Thumb Code   202  dmul.o(.text)
    __aeabi_ddiv                             0x100006b5   Thumb Code   234  ddiv.o(.text)
    __aeabi_i2d                              0x100007a5   Thumb Code    34  dflti.o(.text)
    __aeabi_d2iz                             0x100007cd   Thumb Code    62  dfixi.o(.text)
    __aeabi_llsl                             0x10000815   Thumb Code    32  llshl.o(.text)
    _ll_shift_l                              0x10000815   Thumb Code     0  llshl.o(.text)
    __aeabi_llsr                             0x10000835   Thumb Code    34  llushr.o(.text)
    _ll_ushift_r                             0x10000835   Thumb Code     0  llushr.o(.text)
    localtime                                0x10000859   Thumb Code    10  localtime_w.o(.text)
    _localtime                               0x10000869   Thumb Code   104  localtime_i.o(.text)
    strtol                                   0x100008dd   Thumb Code   108  strtol.o(.text)
    __I$use$fp                               0x1000094d   Thumb Code     0  iusefp.o(.text)
    _double_round                            0x1000094d   Thumb Code    26  depilogue.o(.text)
    _double_epilogue                         0x10000967   Thumb Code   164  depilogue.o(.text)
    __aeabi_d2ulz                            0x10000a0d   Thumb Code    54  dfixul.o(.text)
    __aeabi_cdrcmple                         0x10000a4d   Thumb Code    38  cdrcmple.o(.text)
    __scatterload                            0x10000a75   Thumb Code    28  init.o(.text)
    __scatterload_rt2                        0x10000a75   Thumb Code     0  init.o(.text)
    __rt_ctype_table                         0x10000a99   Thumb Code     4  ctype_o.o(.text)
    _strtoul                                 0x10000aa1   Thumb Code   166  _strtoul.o(.text)
    _chval                                   0x10000b47   Thumb Code    30  _chval.o(.text)
    __decompress                             0x10000b65   Thumb Code     0  __dczerorl.o(.text)
    __decompress0                            0x10000b65   Thumb Code    58  __dczerorl.o(.text)
    ADC_IRQHandler                           0x10000ba1   Thumb Code   190  adc.o(i.ADC_IRQHandler)
    BLE_IRQHandler                           0x10000c75   Thumb Code   150  lib.o(i.BLE_IRQHandler)
    COMPARATOR0_IRQHandler                   0x10000d21   Thumb Code    12  analog.o(i.COMPARATOR0_IRQHandler)
    COMPARATOR1_IRQHandler                   0x10000d31   Thumb Code    12  analog.o(i.COMPARATOR1_IRQHandler)
    GPIO_IRQHandler                          0x10000d41   Thumb Code    36  gpio.o(i.GPIO_IRQHandler)
    OSC_EN_IRQHandler                        0x10000d69   Thumb Code    12  sleep.o(i.OSC_EN_IRQHandler)
    SystemInit                               0x10000d7d   Thumb Code   220  system.o(i.SystemInit)
    TIMER0_IRQHandler                        0x10000e91   Thumb Code    44  timer.o(i.TIMER0_IRQHandler)
    TIMER1_IRQHandler                        0x10000ec5   Thumb Code    44  timer.o(i.TIMER1_IRQHandler)
    TIMER2_IRQHandler                        0x10000ef9   Thumb Code    44  timer.o(i.TIMER2_IRQHandler)
    TIMER3_IRQHandler                        0x10000f2d   Thumb Code    44  timer.o(i.TIMER3_IRQHandler)
    UART0_RX_IRQHandler                      0x10000f61   Thumb Code    90  uart.o(i.UART0_RX_IRQHandler)
    UART0_TX_IRQHandler                      0x10000fc5   Thumb Code    52  uart.o(i.UART0_TX_IRQHandler)
    UartPutc                                 0x10001001   Thumb Code    18  uart.o(i.UartPutc)
    WDT_IRQHandler                           0x10001019   Thumb Code    18  wdt.o(i.WDT_IRQHandler)
    __0printf                                0x10001031   Thumb Code    24  printfa.o(i.__0printf)
    __1printf                                0x10001031   Thumb Code     0  printfa.o(i.__0printf)
    __2printf                                0x10001031   Thumb Code     0  printfa.o(i.__0printf)
    __c89printf                              0x10001031   Thumb Code     0  printfa.o(i.__0printf)
    printf                                   0x10001031   Thumb Code     0  printfa.o(i.__0printf)
    __ARM_clz                                0x10001051   Thumb Code    46  depilogue.o(i.__ARM_clz)
    __ARM_common_switch8                     0x1000107f   Thumb Code    26  app_gap_task.o(i.__ARM_common_switch8)
    __aeabi_errno_addr                       0x10001159   Thumb Code     4  errno.o(i.__aeabi_errno_addr)
    __rt_errno_addr                          0x10001159   Thumb Code     0  errno.o(i.__aeabi_errno_addr)
    __scatterload_copy                       0x10001161   Thumb Code    14  handlers.o(i.__scatterload_copy)
    __scatterload_null                       0x1000116f   Thumb Code     2  handlers.o(i.__scatterload_null)
    __scatterload_zeroinit                   0x10001171   Thumb Code    14  handlers.o(i.__scatterload_zeroinit)
    adc_clean_fifo                           0x10001a29   Thumb Code    14  adc.o(i.adc_clean_fifo)
    adc_init                                 0x10001a3d   Thumb Code   234  adc.o(i.adc_init)
    adc_read                                 0x10001b4d   Thumb Code   126  adc.o(i.adc_read)
    adc_sample_complete_callback             0x10001be5   Thumb Code     6  usr_design.o(i.adc_sample_complete_callback)
    app_add_bonded_dev                       0x10001bf1   Thumb Code    32  app_util.o(i.app_add_bonded_dev)
    app_button_timer_handler                 0x10001c15   Thumb Code   112  usr_design.o(i.app_button_timer_handler)
    app_char_config_desc_change              0x10001cad   Thumb Code   168  usr_design.o(i.app_char_config_desc_change)
    app_clear_local_service_flag             0x10001d65   Thumb Code    10  app_util.o(i.app_clear_local_service_flag)
    app_clear_stored_meas                    0x10001d75   Thumb Code    10  usr_design.o(i.app_clear_stored_meas)
    app_create_server_service_DB             0x10001d85   Thumb Code    28  app_util.o(i.app_create_server_service_DB)
    app_diss_create_db                       0x10001da9   Thumb Code    26  app_diss.o(i.app_diss_create_db)
    app_diss_create_db_cfm_handler           0x10001dc9   Thumb Code   184  app_diss_task.o(i.app_diss_create_db_cfm_handler)
    app_diss_enable_req                      0x10001ed9   Thumb Code    30  app_diss.o(i.app_diss_enable_req)
    app_diss_error_ind_handler               0x10001f01   Thumb Code     4  app_diss_task.o(i.app_diss_error_ind_handler)
    app_enable_server_service                0x10001f05   Thumb Code    86  app_util.o(i.app_enable_server_service)
    app_event_adc_sample_cmp_handler         0x10001f65   Thumb Code    68  usr_design.o(i.app_event_adc_sample_cmp_handler)
    app_event_button1_press_handler          0x10001fb9   Thumb Code    20  usr_design.o(i.app_event_button1_press_handler)
    app_find_bonded_dev                      0x10001fd9   Thumb Code    50  app_util.o(i.app_find_bonded_dev)
    app_gap_adv_intv_update_timer_handler    0x10002015   Thumb Code    64  usr_design.o(i.app_gap_adv_intv_update_timer_handler)
    app_gap_adv_req_cmp_evt_handler          0x10002061   Thumb Code    34  app_gap_task.o(i.app_gap_adv_req_cmp_evt_handler)
    app_gap_adv_start_req                    0x100020a9   Thumb Code   128  app_gap.o(i.app_gap_adv_start_req)
    app_gap_adv_stop_req                     0x10002131   Thumb Code    26  app_gap.o(i.app_gap_adv_stop_req)
    app_gap_bond_req_cmp_ind_handler         0x10002155   Thumb Code   110  app_gap_task.o(i.app_gap_bond_req_cmp_ind_handler)
    app_gap_bond_req_ind_handler             0x100021cd   Thumb Code    82  app_gap_task.o(i.app_gap_bond_req_ind_handler)
    app_gap_bond_resp                        0x10002229   Thumb Code    52  app_gap.o(i.app_gap_bond_resp)
    app_gap_change_param_req_cmp_handler     0x10002265   Thumb Code    44  app_gap_task.o(i.app_gap_change_param_req_cmp_handler)
    app_gap_discon_cmp_evt_handler           0x100022b1   Thumb Code    86  app_gap_task.o(i.app_gap_discon_cmp_evt_handler)
    app_gap_discon_req                       0x10002365   Thumb Code    30  app_gap.o(i.app_gap_discon_req)
    app_gap_le_create_conn_req_cmp_evt_handler 0x1000238d   Thumb Code   100  app_gap_task.o(i.app_gap_le_create_conn_req_cmp_evt_handler)
    app_gap_param_update_req                 0x10002431   Thumb Code    42  app_gap.o(i.app_gap_param_update_req)
    app_gap_param_update_resp_handler        0x10002465   Thumb Code    46  app_gap_task.o(i.app_gap_param_update_resp_handler)
    app_gap_read_bdaddr_req                  0x100024bd   Thumb Code    10  app_gap.o(i.app_gap_read_bdaddr_req)
    app_gap_read_bdaddr_req_cmp_evt_handler  0x100024d1   Thumb Code    48  app_gap_task.o(i.app_gap_read_bdaddr_req_cmp_evt_handler)
    app_gap_read_ver_req                     0x10002525   Thumb Code    10  app_gap.o(i.app_gap_read_ver_req)
    app_gap_read_ver_req_cmp_evt_handler     0x10002539   Thumb Code    32  app_gap_task.o(i.app_gap_read_ver_req_cmp_evt_handler)
    app_gap_ready_evt_handler                0x1000255d   Thumb Code    24  app_gap_task.o(i.app_gap_ready_evt_handler)
    app_gap_reset_req_cmp_handler            0x10002575   Thumb Code    10  app_gap_task.o(i.app_gap_reset_req_cmp_handler)
    app_gap_set_bondable_mode_req            0x10002581   Thumb Code    26  app_gap.o(i.app_gap_set_bondable_mode_req)
    app_gap_set_devname_req_cmp_evt_handler  0x100025a5   Thumb Code    24  app_gap_task.o(i.app_gap_set_devname_req_cmp_evt_handler)
    app_gap_set_mode_req_cmp_evt_handler     0x100025d9   Thumb Code    66  app_gap_task.o(i.app_gap_set_mode_req_cmp_evt_handler)
    app_gap_set_privacy_req_cmp_handler      0x1000266d   Thumb Code    22  app_gap_task.o(i.app_gap_set_privacy_req_cmp_handler)
    app_gap_set_random_add_req_cmp_handler   0x100026b5   Thumb Code    18  app_gap_task.o(i.app_gap_set_random_add_req_cmp_handler)
    app_gap_set_sec_req                      0x100026e5   Thumb Code    30  app_gap.o(i.app_gap_set_sec_req)
    app_gap_set_sec_req_cmp_evt_handler      0x1000270d   Thumb Code    32  app_gap_task.o(i.app_gap_set_sec_req_cmp_evt_handler)
    app_gatt_resource_access_req_handler     0x10002731   Thumb Code    30  app_gap_task.o(i.app_gatt_resource_access_req_handler)
    app_get_bd_addr_by_conhdl                0x10002759   Thumb Code    60  app_util.o(i.app_get_bd_addr_by_conhdl)
    app_get_bond_nb                          0x10002799   Thumb Code     6  app_util.o(i.app_get_bond_nb)
    app_get_bond_status                      0x100027a5   Thumb Code    30  app_util.o(i.app_get_bond_status)
    app_get_celsius_temperature              0x100027c9   Thumb Code    84  usr_design.o(i.app_get_celsius_temperature)
    app_get_conhdl_by_idx                    0x10002841   Thumb Code    30  app_util.o(i.app_get_conhdl_by_idx)
    app_get_imeas_notify_data                0x10002869   Thumb Code    54  usr_design.o(i.app_get_imeas_notify_data)
    app_get_link_status_by_idx               0x100028bd   Thumb Code    24  app_util.o(i.app_get_link_status_by_idx)
    app_get_lk_sec_status                    0x100028d9   Thumb Code    32  app_util.o(i.app_get_lk_sec_status)
    app_get_local_service_flag               0x100028fd   Thumb Code     4  app_util.o(i.app_get_local_service_flag)
    app_get_meas_indicate_data               0x10002905   Thumb Code   130  usr_design.o(i.app_get_meas_indicate_data)
    app_get_role                             0x100029c5   Thumb Code     6  app_util.o(i.app_get_role)
    app_htpt_cfg_indntf_ind_handler          0x100029d1   Thumb Code    10  app_htpt_task.o(i.app_htpt_cfg_indntf_ind_handler)
    app_htpt_create_db                       0x100029dd   Thumb Code    34  app_htpt.o(i.app_htpt_create_db)
    app_htpt_create_db_cfm_handler           0x10002a05   Thumb Code    18  app_htpt_task.o(i.app_htpt_create_db_cfm_handler)
    app_htpt_disable_ind_handler             0x10002a19   Thumb Code    24  app_htpt_task.o(i.app_htpt_disable_ind_handler)
    app_htpt_enable_req                      0x10002a35   Thumb Code    54  app_htpt.o(i.app_htpt_enable_req)
    app_htpt_error_ind_handler               0x10002a75   Thumb Code    12  app_htpt_task.o(i.app_htpt_error_ind_handler)
    app_htpt_idle_connection_timeout_timer_handler 0x10002a9d   Thumb Code    46  usr_design.o(i.app_htpt_idle_connection_timeout_timer_handler)
    app_htpt_meas_intv_chg_ind_handler       0x10002b05   Thumb Code    38  app_htpt_task.o(i.app_htpt_meas_intv_chg_ind_handler)
    app_htpt_measurement_intv_send           0x10002b55   Thumb Code    30  app_htpt.o(i.app_htpt_measurement_intv_send)
    app_htpt_period_meas_timer_handler       0x10002b7d   Thumb Code    80  usr_design.o(i.app_htpt_period_meas_timer_handler)
    app_htpt_temp_send                       0x10002c15   Thumb Code    38  app_htpt.o(i.app_htpt_temp_send)
    app_htpt_temp_send_cfm_handler           0x10002c45   Thumb Code    10  app_htpt_task.o(i.app_htpt_temp_send_cfm_handler)
    app_i_to_array                           0x10002c4f   Thumb Code    38  app_util.o(i.app_i_to_array)
    app_init                                 0x10002c75   Thumb Code   108  app_env.o(i.app_init)
    app_init_local_smp_key                   0x10002cf9   Thumb Code    22  app_util.o(i.app_init_local_smp_key)
    app_interm_temp_notify                   0x10002d15   Thumb Code    78  usr_design.o(i.app_interm_temp_notify)
    app_interm_temp_stable_status_reset      0x10002d75   Thumb Code    16  usr_design.o(i.app_interm_temp_stable_status_reset)
    app_is_interm_temp_stable                0x10002d8d   Thumb Code    62  usr_design.o(i.app_is_interm_temp_stable)
    app_led_timer_handler                    0x10002df9   Thumb Code    56  usr_design.o(i.app_led_timer_handler)
    app_param_update                         0x10002e3d   Thumb Code    56  usr_design.o(i.app_param_update)
    app_send_stored_meas                     0x10002e81   Thumb Code   100  usr_design.o(i.app_send_stored_meas)
    app_set_adv_data                         0x10002f05   Thumb Code    92  app_util.o(i.app_set_adv_data)
    app_set_char_val_req                     0x10002f79   Thumb Code    46  app_diss.o(i.app_set_char_val_req)
    app_set_idle_connection                  0x10002fb1   Thumb Code    18  usr_design.o(i.app_set_idle_connection)
    app_set_link_status_by_conhdl            0x10002fd1   Thumb Code    90  app_util.o(i.app_set_link_status_by_conhdl)
    app_set_role                             0x10003031   Thumb Code     6  app_util.o(i.app_set_role)
    app_set_scan_rsp_data                    0x1000303d   Thumb Code   128  app_util.o(i.app_set_scan_rsp_data)
    app_smpc_chk_bd_addr_req_ind_handler     0x100031fd   Thumb Code    66  app_smp_task.o(i.app_smpc_chk_bd_addr_req_ind_handler)
    app_smpc_chk_bd_addr_req_rsp             0x10003245   Thumb Code    56  app_smp.o(i.app_smpc_chk_bd_addr_req_rsp)
    app_smpc_irk_req_ind_handler             0x10003285   Thumb Code   138  app_smp_task.o(i.app_smpc_irk_req_ind_handler)
    app_smpc_irk_req_rsp                     0x1000333d   Thumb Code    66  app_smp.o(i.app_smpc_irk_req_rsp)
    app_smpc_key_ind_handler                 0x10003389   Thumb Code   136  app_smp_task.o(i.app_smpc_key_ind_handler)
    app_smpc_ltk_req_ind_handler             0x10003435   Thumb Code   172  app_smp_task.o(i.app_smpc_ltk_req_ind_handler)
    app_smpc_ltk_req_rsp                     0x10003519   Thumb Code    74  app_smp.o(i.app_smpc_ltk_req_rsp)
    app_smpc_sec_started_ind_handler         0x1000356d   Thumb Code    38  app_smp_task.o(i.app_smpc_sec_started_ind_handler)
    app_smpc_timeout_evt_handler             0x10003599   Thumb Code    36  app_smp_task.o(i.app_smpc_timeout_evt_handler)
    app_smpc_tk_req_ind_handler              0x100035dd   Thumb Code    76  app_smp_task.o(i.app_smpc_tk_req_ind_handler)
    app_smpc_tk_req_rsp                      0x10003661   Thumb Code    50  app_smp.o(i.app_smpc_tk_req_rsp)
    app_smpm_set_key_cfm_handler             0x1000369d   Thumb Code    32  app_smp_task.o(i.app_smpm_set_key_cfm_handler)
    app_smpm_set_key_req                     0x100036c1   Thumb Code    42  app_smp.o(i.app_smpm_set_key_req)
    app_start_adv                            0x100036f5   Thumb Code    64  usr_design.o(i.app_start_adv)
    app_sys_time_check_timer_handler         0x1000377d   Thumb Code    10  bletime.o(i.app_sys_time_check_timer_handler)
    app_task_msg_hdl                         0x10003789   Thumb Code   260  usr_design.o(i.app_task_msg_hdl)
    app_temp_meas_indicate                   0x100038d9   Thumb Code    54  usr_design.o(i.app_temp_meas_indicate)
    app_uart_init                            0x10003919   Thumb Code     2  app_sys.o(i.app_uart_init)
    assert_err                               0x1000391d   Thumb Code    20  app_main.o(i.assert_err)
    ble_ext_wakeup_allow                     0x100039a1   Thumb Code    36  lib.o(i.ble_ext_wakeup_allow)
    ble_hw_sleep                             0x100039c9   Thumb Code    18  lib.o(i.ble_hw_sleep)
    ble_init                                 0x100039dd   Thumb Code   204  lib.o(i.ble_init)
    ble_sleep                                0x10003aed   Thumb Code    42  lib.o(i.ble_sleep)
    button_init                              0x10003b1d   Thumb Code    36  button.o(i.button_init)
    check_ble_wakeup                         0x10003b59   Thumb Code    14  lib.o(i.check_ble_wakeup)
    co_buf_rx_get                            0x10003b6d   Thumb Code    10  lib.o(i.co_buf_rx_get)
    config_work_mode                         0x10003b7d   Thumb Code    74  lib.o(i.config_work_mode)
    dc_dc_enable                             0x10003be1   Thumb Code    50  lib.o(i.dc_dc_enable)
    diss_check_val_len                       0x10003c75   Thumb Code    42  diss.o(i.diss_check_val_len)
    diss_compute_cfg_flag                    0x10003c9f   Thumb Code    38  diss.o(i.diss_compute_cfg_flag)
    diss_disable                             0x10003d39   Thumb Code    44  diss.o(i.diss_disable)
    diss_init                                0x10003dc5   Thumb Code    24  diss.o(i.diss_init)
    enter_sleep                              0x10003e61   Thumb Code   204  sleep.o(i.enter_sleep)
    foo1                                     0x10003f65   Thumb Code     2  lib.o(i.foo1)
    fputc                                    0x10003f67   Thumb Code    10  retarget.o(i.fputc)
    fw_ble_sleep                             0x10003f71   Thumb Code   134  lib.o(i.fw_ble_sleep)
    get_time_sec                             0x10004391   Thumb Code    40  bletime.o(i.get_time_sec)
    gpio_enable_interrupt                    0x100043c1   Thumb Code    10  gpio.o(i.gpio_enable_interrupt)
    gpio_init                                0x100043cd   Thumb Code    20  gpio.o(i.gpio_init)
    gpio_interrupt_callback                  0x100043e9   Thumb Code    16  usr_design.o(i.gpio_interrupt_callback)
    gpio_read_pin                            0x100043f9   Thumb Code    20  gpio.o(i.gpio_read_pin)
    gpio_read_pin_field                      0x1000440d   Thumb Code    12  gpio.o(i.gpio_read_pin_field)
    gpio_set_direction                       0x10004419   Thumb Code    16  gpio.o(i.gpio_set_direction)
    gpio_set_direction_field                 0x10004429   Thumb Code    14  gpio.o(i.gpio_set_direction_field)
    gpio_sleep_allowed                       0x10004437   Thumb Code    30  gpio.o(i.gpio_sleep_allowed)
    gpio_wakeup_config                       0x10004455   Thumb Code    86  gpio.o(i.gpio_wakeup_config)
    gpio_write_pin                           0x100044ab   Thumb Code    22  gpio.o(i.gpio_write_pin)
    htpt_compute_att_table                   0x100044c1   Thumb Code    54  htpt.o(i.htpt_compute_att_table)
    htpt_disable                             0x1000460d   Thumb Code   132  htpt.o(i.htpt_disable)
    htpt_get_valid_rge_offset                0x100047c1   Thumb Code    20  htpt.o(i.htpt_get_valid_rge_offset)
    htpt_init                                0x100047d9   Thumb Code    24  htpt.o(i.htpt_init)
    htpt_pack_temp_value                     0x10004861   Thumb Code    92  htpt.o(i.htpt_pack_temp_value)
    htpt_temp_send_cfm_send                  0x100048bd   Thumb Code    36  htpt.o(i.htpt_temp_send_cfm_send)
    ke_schedule                              0x100049d9   Thumb Code    60  lib.o(i.ke_schedule)
    ke_time                                  0x10004a25   Thumb Code    34  lib.o(i.ke_time)
    ke_timer_empty                           0x10004a4d   Thumb Code    18  lib.o(i.ke_timer_empty)
    led_get                                  0x10004b11   Thumb Code    46  led.o(i.led_get)
    led_init                                 0x10004b3f   Thumb Code    56  led.o(i.led_init)
    led_set                                  0x10004b77   Thumb Code    40  led.o(i.led_set)
    main                                     0x10004bdd   Thumb Code   276  app_main.o(i.main)
    plf_init                                 0x10004e71   Thumb Code   592  lib.o(i.plf_init)
    prf_dispatch_disconnect                  0x100052bd   Thumb Code    52  prf_utils.o(i.prf_dispatch_disconnect)
    prf_init                                 0x100052f9   Thumb Code    12  prf_utils.o(i.prf_init)
    prf_pack_date_time                       0x10005305   Thumb Code    32  prf_utils.o(i.prf_pack_date_time)
    prf_server_error_ind_send                0x10005325   Thumb Code    38  prf_utils.o(i.prf_server_error_ind_send)
    qn_time_get                              0x10005351   Thumb Code    48  bletime.o(i.qn_time_get)
    qn_time_init                             0x10005385   Thumb Code     8  bletime.o(i.qn_time_init)
    qn_time_set                              0x1000538d   Thumb Code   106  bletime.o(i.qn_time_set)
    restore_ble_setting                      0x10005401   Thumb Code    68  lib.o(i.restore_ble_setting)
    rf_enable                                0x10005455   Thumb Code    92  qnrf.o(i.rf_enable)
    rf_enable_sw_set_freq                    0x100054b1   Thumb Code    26  qnrf.o(i.rf_enable_sw_set_freq)
    rwble_slot_2_lpcycles                    0x100054d1   Thumb Code    32  lib.o(i.rwble_slot_2_lpcycles)
    set_dbg_info                             0x100054f5   Thumb Code    10  lib.o(i.set_dbg_info)
    set_time_sec                             0x10005505   Thumb Code    14  bletime.o(i.set_time_sec)
    sleep_cb                                 0x10005519   Thumb Code    20  sleep.o(i.sleep_cb)
    sleep_init                               0x10005531   Thumb Code    40  sleep.o(i.sleep_init)
    sleep_post_process                       0x10005569   Thumb Code    90  lib.o(i.sleep_post_process)
    start_measure_temperature                0x100055f1   Thumb Code    52  usr_design.o(i.start_measure_temperature)
    syscon_set_ahb_clk                       0x10005699   Thumb Code    48  syscon.o(i.syscon_set_ahb_clk)
    syscon_set_apb_clk                       0x100056d1   Thumb Code    46  syscon.o(i.syscon_set_apb_clk)
    syscon_set_ble_clk                       0x10005705   Thumb Code    56  syscon.o(i.syscon_set_ble_clk)
    syscon_set_sysclk_src                    0x10005745   Thumb Code   150  syscon.o(i.syscon_set_sysclk_src)
    syscon_set_timer_clk                     0x100057fd   Thumb Code    38  syscon.o(i.syscon_set_timer_clk)
    syscon_set_usart_clk                     0x10005829   Thumb Code    92  syscon.o(i.syscon_set_usart_clk)
    task_app_desc_register                   0x10005899   Thumb Code    44  app_task.o(i.task_app_desc_register)
    task_diss_desc_register                  0x100058d1   Thumb Code    44  diss_task.o(i.task_diss_desc_register)
    task_htpt_desc_register                  0x100059cd   Thumb Code    44  htpt_task.o(i.task_htpt_desc_register)
    temp_sensor_enable                       0x10005a05   Thumb Code    68  analog.o(i.temp_sensor_enable)
    time_check_trigger                       0x10005a59   Thumb Code    56  bletime.o(i.time_check_trigger)
    uart_check_tx_free                       0x10005ae9   Thumb Code    44  uart.o(i.uart_check_tx_free)
    uart_init                                0x10005b4d   Thumb Code   104  uart.o(i.uart_init)
    usr_button1_cb                           0x10005c05   Thumb Code    22  usr_design.o(i.usr_button1_cb)
    usr_init                                 0x10005c25   Thumb Code    48  usr_design.o(i.usr_init)
    usr_sleep                                0x10005cd1   Thumb Code    78  sleep.o(i.usr_sleep)
    usr_sleep_restore                        0x10005d29   Thumb Code    36  usr_design.o(i.usr_sleep_restore)
    wakeup_by_sleep_timer                    0x10005d55   Thumb Code    90  sleep.o(i.wakeup_by_sleep_timer)
    wdt_irq_clear                            0x10005dbd   Thumb Code    18  wdt.o(i.wdt_irq_clear)
    app_default_state                        0x10005de4   Data         328  app_task.o(.constdata)
    app_default_handler                      0x10005f2c   Data           8  app_task.o(.constdata)
    app_state_handler                        0x10005f34   Data          40  app_task.o(.constdata)
    htpt_att_db                              0x10005f5c   Data         156  htpt.o(.constdata)
    htpt_hlth_therm_svc                      0x10005ff8   Data           2  htpt.o(.constdata)
    htpt_temp_meas_char                      0x10005ffa   Data           5  htpt.o(.constdata)
    htpt_temp_type_char                      0x10005fff   Data           5  htpt.o(.constdata)
    htpt_interm_temp_char                    0x10006004   Data           5  htpt.o(.constdata)
    htpt_meas_intv_char                      0x10006009   Data           5  htpt.o(.constdata)
    htpt_disabled                            0x10006010   Data           8  htpt_task.o(.constdata)
    htpt_idle                                0x10006018   Data          16  htpt_task.o(.constdata)
    htpt_connected                           0x10006028   Data          48  htpt_task.o(.constdata)
    htpt_default_state                       0x10006058   Data           8  htpt_task.o(.constdata)
    htpt_default_handler                     0x10006060   Data           8  htpt_task.o(.constdata)
    htpt_state_handler                       0x10006068   Data          24  htpt_task.o(.constdata)
    diss_att_db                              0x10006080   Data         228  diss.o(.constdata)
    diss_dis_svc                             0x10006164   Data           2  diss.o(.constdata)
    diss_manufacturer_name_char              0x10006166   Data           5  diss.o(.constdata)
    diss_model_nb_str_char                   0x1000616b   Data           5  diss.o(.constdata)
    diss_serial_nb_str_char                  0x10006170   Data           5  diss.o(.constdata)
    diss_hard_rev_str_char                   0x10006175   Data           5  diss.o(.constdata)
    diss_firm_rev_str_char                   0x1000617a   Data           5  diss.o(.constdata)
    diss_sw_rev_str_char                     0x1000617f   Data           5  diss.o(.constdata)
    diss_system_id_char                      0x10006184   Data           5  diss.o(.constdata)
    diss_ieee_char                           0x10006189   Data           5  diss.o(.constdata)
    diss_pnp_id_char                         0x1000618e   Data           5  diss.o(.constdata)
    diss_disabled                            0x10006194   Data           8  diss_task.o(.constdata)
    diss_idle                                0x1000619c   Data          16  diss_task.o(.constdata)
    diss_default_state                       0x100061ac   Data           8  diss_task.o(.constdata)
    diss_default_handler                     0x100061b4   Data           8  diss_task.o(.constdata)
    diss_state_handler                       0x100061bc   Data          24  diss_task.o(.constdata)
    uart_divider                             0x100061d4   Data          51  uart.o(.constdata)
    __ctype_table                            0x10006230   Data         129  ctype_o.o(.constdata)
    Region$$Table$$Base                      0x10006440   Number         0  anon$$obj.o(Region$$Table)
    Region$$Table$$Limit                     0x10006470   Number         0  anon$$obj.o(Region$$Table)
    usr_env                                  0x10006470   Data         548  usr_design.o(.data)
    app_state                                0x10006694   Data           2  app_task.o(.data)
    app_htpt_env                             0x10006698   Data           4  app_htpt_task.o(.data)
    app_diss_env                             0x1000669c   Data           4  app_diss_task.o(.data)
    htpt_state                               0x100066a0   Data           2  htpt_task.o(.data)
    diss_state                               0x100066a2   Data           2  diss_task.o(.data)
    low_power_mode_en                        0x100066a8   Data           1  sleep.o(.data)
    PGCR1_restore                            0x100066ac   Data           4  sleep.o(.data)
    sleep_env                                0x100066b0   Data          20  sleep.o(.data)
    g_SystemClock                            0x100066c4   Data           4  syscon.o(.data)
    g_AhbClock                               0x100066c8   Data           4  syscon.o(.data)
    g_ApbClock                               0x100066cc   Data           4  syscon.o(.data)
    TEMP_OFFSET                              0x100066e4   Data           2  analog.o(.data)
    reset_test                               0x100066f0   Data           4  wdt.o(.data)
    timer0_env                               0x100066f4   Data           8  timer.o(.data)
    timer1_env                               0x100066fc   Data           8  timer.o(.data)
    timer2_env                               0x10006704   Data           8  timer.o(.data)
    timer3_env                               0x1000670c   Data           8  timer.o(.data)
    __stdout                                 0x10006714   Data           4  retarget.o(.data)
    ke_evt_hdlr                              0x1000671c   Data           4  lib.o(.data)
    ke_env                                   0x10006720   Data           4  lib.o(.data)
    rwble_env                                0x10006724   Data           4  lib.o(.data)
    app_env                                  0x10006e48   Data         252  app_env.o(.bss)
    htpt_env                                 0x10006f44   Data          14  htpt.o(.bss)
    diss_env                                 0x10006f52   Data          18  diss.o(.bss)
    gatt_idle_new                            0x10007138   Data         256  lib.o(.bss)
    __initial_sp                             0x10007578   Data           0  startup.o(STACK)



==============================================================================

Memory Map of the image

  Image Entry point : 0x100000c1

  Load Region LR_ROM1 (Base: 0x10000000, Size: 0x00006740, Max: 0x0000cdb0, ABSOLUTE, COMPRESSED[0x000064b4])

    Execution Region APP_CODE (Base: 0x10000000, Size: 0x00007578, Max: 0x0000cdb0, ABSOLUTE, COMPRESSED[0x00000044])

    Base Addr    Size         Type   Attr      Idx    E Section Name        Object

    0x10000000   0x000000c0   Data   RO            3    RESET               startup.o
    0x100000c0   0x00000000   Code   RO         2785  * .ARM.Collect$$$$00000000  mc_p.l(entry.o)
    0x100000c0   0x00000004   Code   RO         3089    .ARM.Collect$$$$00000001  mc_p.l(entry2.o)
    0x100000c4   0x00000004   Code   RO         3092    .ARM.Collect$$$$00000004  mc_p.l(entry5.o)
    0x100000c8   0x00000000   Code   RO         3094    .ARM.Collect$$$$00000008  mc_p.l(entry7b.o)
    0x100000c8   0x00000000   Code   RO         3096    .ARM.Collect$$$$0000000A  mc_p.l(entry8b.o)
    0x100000c8   0x00000008   Code   RO         3097    .ARM.Collect$$$$0000000B  mc_p.l(entry9a.o)
    0x100000d0   0x00000000   Code   RO         3099    .ARM.Collect$$$$0000000D  mc_p.l(entry10a.o)
    0x100000d0   0x00000000   Code   RO         3101    .ARM.Collect$$$$0000000F  mc_p.l(entry11a.o)
    0x100000d0   0x00000004   Code   RO         3090    .ARM.Collect$$$$00002712  mc_p.l(entry2.o)
    0x100000d4   0x00000030   Code   RO            4    .text               startup.o
    0x10000104   0x000001ae   Code   RO         2766    .text               qn9020b2_lib_peripheral.lib(math.o)
    0x100002b2   0x0000002c   Code   RO         2788    .text               mc_p.l(uidiv.o)
    0x100002de   0x00000028   Code   RO         2790    .text               mc_p.l(idiv.o)
    0x10000306   0x00000026   Code   RO         2792    .text               mc_p.l(llsshr.o)
    0x1000032c   0x00000024   Code   RO         2794    .text               mc_p.l(rand.o)
    0x10000350   0x0000008c   Code   RO         2801    .text               mc_p.l(mktime.o)
    0x100003dc   0x00000024   Code   RO         2804    .text               mc_p.l(memcpya.o)
    0x10000400   0x00000024   Code   RO         2806    .text               mc_p.l(memseta.o)
    0x10000424   0x0000001a   Code   RO         2808    .text               mc_p.l(memcmp.o)
    0x1000043e   0x00000012   Code   RO         2810    .text               mc_p.l(strcpy.o)
    0x10000450   0x00000014   Code   RO         3075    .text               mc_p.l(uread4.o)
    0x10000464   0x0000001a   Code   RO         3077    .text               mc_p.l(atoi.o)
    0x1000047e   0x00000002   PAD
    0x10000480   0x00000164   Code   RO         3079    .text               mf_p.l(dadd.o)
    0x100005e4   0x000000d0   Code   RO         3081    .text               mf_p.l(dmul.o)
    0x100006b4   0x000000f0   Code   RO         3083    .text               mf_p.l(ddiv.o)
    0x100007a4   0x00000028   Code   RO         3085    .text               mf_p.l(dflti.o)
    0x100007cc   0x00000048   Code   RO         3087    .text               mf_p.l(dfixi.o)
    0x10000814   0x00000020   Code   RO         3103    .text               mc_p.l(llshl.o)
    0x10000834   0x00000022   Code   RO         3105    .text               mc_p.l(llushr.o)
    0x10000856   0x00000002   PAD
    0x10000858   0x00000010   Code   RO         3107    .text               mc_p.l(localtime_w.o)
    0x10000868   0x00000074   Code   RO         3110    .text               mc_p.l(localtime_i.o)
    0x100008dc   0x00000070   Code   RO         3120    .text               mc_p.l(strtol.o)
    0x1000094c   0x00000000   Code   RO         3122    .text               mc_p.l(iusefp.o)
    0x1000094c   0x000000be   Code   RO         3123    .text               mf_p.l(depilogue.o)
    0x10000a0a   0x00000002   PAD
    0x10000a0c   0x00000040   Code   RO         3127    .text               mf_p.l(dfixul.o)
    0x10000a4c   0x00000028   Code   RO         3129    .text               mf_p.l(cdrcmple.o)
    0x10000a74   0x00000024   Code   RO         3131    .text               mc_p.l(init.o)
    0x10000a98   0x00000008   Code   RO         3133    .text               mc_p.l(ctype_o.o)
    0x10000aa0   0x000000a6   Code   RO         3161    .text               mc_p.l(_strtoul.o)
    0x10000b46   0x0000001e   Code   RO         3163    .text               mc_p.l(_chval.o)
    0x10000b64   0x0000003a   Code   RO         3173    .text               mc_p.l(__dczerorl.o)
    0x10000b9e   0x00000002   PAD
    0x10000ba0   0x000000d4   Code   RO         2220    i.ADC_IRQHandler    adc.o
    0x10000c74   0x000000ac   Code   RO         2665    i.BLE_IRQHandler    qn9020b2_lib_peripheral.lib(lib.o)
    0x10000d20   0x00000010   Code   RO         2322    i.COMPARATOR0_IRQHandler  analog.o
    0x10000d30   0x00000010   Code   RO         2323    i.COMPARATOR1_IRQHandler  analog.o
    0x10000d40   0x00000028   Code   RO         1841    i.GPIO_IRQHandler   gpio.o
    0x10000d68   0x00000014   Code   RO         1952    i.OSC_EN_IRQHandler  sleep.o
    0x10000d7c   0x00000114   Code   RO          294    i.SystemInit        system.o
    0x10000e90   0x00000034   Code   RO         2456    i.TIMER0_IRQHandler  timer.o
    0x10000ec4   0x00000034   Code   RO         2457    i.TIMER1_IRQHandler  timer.o
    0x10000ef8   0x00000034   Code   RO         2458    i.TIMER2_IRQHandler  timer.o
    0x10000f2c   0x00000034   Code   RO         2459    i.TIMER3_IRQHandler  timer.o
    0x10000f60   0x00000064   Code   RO         1727    i.UART0_RX_IRQHandler  uart.o
    0x10000fc4   0x0000003c   Code   RO         1728    i.UART0_TX_IRQHandler  uart.o
    0x10001000   0x00000018   Code   RO         1730    i.UartPutc          uart.o
    0x10001018   0x00000018   Code   RO         2395    i.WDT_IRQHandler    wdt.o
    0x10001030   0x00000020   Code   RO         3047    i.__0printf         mc_p.l(printfa.o)
    0x10001050   0x0000002e   Code   RO         3125    i.__ARM_clz         mf_p.l(depilogue.o)
    0x1000107e   0x0000001a   Code   RO         1090    i.__ARM_common_switch8  app_gap_task.o
    0x10001098   0x000000c0   Code   RO         2222    i.__adc_calibrate   adc.o
    0x10001158   0x00000008   Code   RO         3113    i.__aeabi_errno_addr  mc_p.l(errno.o)
    0x10001160   0x0000000e   Code   RO         3167    i.__scatterload_copy  mc_p.l(handlers.o)
    0x1000116e   0x00000002   Code   RO         3168    i.__scatterload_null  mc_p.l(handlers.o)
    0x10001170   0x0000000e   Code   RO         3169    i.__scatterload_zeroinit  mc_p.l(handlers.o)
    0x1000117e   0x00000002   PAD
    0x10001180   0x00000158   Code   RO         3054    i._fp_digits        mc_p.l(printfa.o)
    0x100012d8   0x000006ec   Code   RO         3055    i._printf_core      mc_p.l(printfa.o)
    0x100019c4   0x00000020   Code   RO         3056    i._printf_post_padding  mc_p.l(printfa.o)
    0x100019e4   0x0000002c   Code   RO         3057    i._printf_pre_padding  mc_p.l(printfa.o)
    0x10001a10   0x0000000c   Code   RO         2223    i.adc_adc_SetADC0WithMask  adc.o
    0x10001a1c   0x0000000c   Code   RO         2224    i.adc_adc_SetADC1WithMask  adc.o
    0x10001a28   0x00000014   Code   RO         2227    i.adc_clean_fifo    adc.o
    0x10001a3c   0x00000104   Code   RO         2230    i.adc_init          adc.o
    0x10001b40   0x0000000c   Code   RO         2231    i.adc_offset_get_cb  adc.o
    0x10001b4c   0x00000098   Code   RO         2232    i.adc_read          adc.o
    0x10001be4   0x0000000c   Code   RO          376    i.adc_sample_complete_callback  usr_design.o
    0x10001bf0   0x00000024   Code   RO          584    i.app_add_bonded_dev  app_util.o
    0x10001c14   0x00000098   Code   RO          377    i.app_button_timer_handler  usr_design.o
    0x10001cac   0x000000b8   Code   RO          378    i.app_char_config_desc_change  usr_design.o
    0x10001d64   0x00000010   Code   RO          586    i.app_clear_local_service_flag  app_util.o
    0x10001d74   0x00000010   Code   RO          379    i.app_clear_stored_meas  usr_design.o
    0x10001d84   0x00000024   Code   RO          587    i.app_create_server_service_DB  app_util.o
    0x10001da8   0x00000020   Code   RO         1343    i.app_diss_create_db  app_diss.o
    0x10001dc8   0x00000110   Code   RO         1375    i.app_diss_create_db_cfm_handler  app_diss_task.o
    0x10001ed8   0x00000028   Code   RO         1344    i.app_diss_enable_req  app_diss.o
    0x10001f00   0x00000004   Code   RO         1376    i.app_diss_error_ind_handler  app_diss_task.o
    0x10001f04   0x00000060   Code   RO          588    i.app_enable_server_service  app_util.o
    0x10001f64   0x00000054   Code   RO          380    i.app_event_adc_sample_cmp_handler  usr_design.o
    0x10001fb8   0x00000020   Code   RO          381    i.app_event_button1_press_handler  usr_design.o
    0x10001fd8   0x0000003c   Code   RO          589    i.app_find_bonded_dev  app_util.o
    0x10002014   0x0000004c   Code   RO          382    i.app_gap_adv_intv_update_timer_handler  usr_design.o
    0x10002060   0x00000048   Code   RO          969    i.app_gap_adv_req_cmp_evt_handler  app_gap_task.o
    0x100020a8   0x00000088   Code   RO          857    i.app_gap_adv_start_req  app_gap.o
    0x10002130   0x00000024   Code   RO          858    i.app_gap_adv_stop_req  app_gap.o
    0x10002154   0x00000078   Code   RO          970    i.app_gap_bond_req_cmp_ind_handler  app_gap_task.o
    0x100021cc   0x0000005c   Code   RO          971    i.app_gap_bond_req_ind_handler  app_gap_task.o
    0x10002228   0x0000003c   Code   RO          860    i.app_gap_bond_resp  app_gap.o
    0x10002264   0x0000004c   Code   RO          972    i.app_gap_change_param_req_cmp_handler  app_gap_task.o
    0x100022b0   0x000000b4   Code   RO          973    i.app_gap_discon_cmp_evt_handler  app_gap_task.o
    0x10002364   0x00000028   Code   RO          861    i.app_gap_discon_req  app_gap.o
    0x1000238c   0x000000a4   Code   RO          974    i.app_gap_le_create_conn_req_cmp_evt_handler  app_gap_task.o
    0x10002430   0x00000034   Code   RO          862    i.app_gap_param_update_req  app_gap.o
    0x10002464   0x00000058   Code   RO          975    i.app_gap_param_update_resp_handler  app_gap_task.o
    0x100024bc   0x00000014   Code   RO          863    i.app_gap_read_bdaddr_req  app_gap.o
    0x100024d0   0x00000054   Code   RO          976    i.app_gap_read_bdaddr_req_cmp_evt_handler  app_gap_task.o
    0x10002524   0x00000014   Code   RO          864    i.app_gap_read_ver_req  app_gap.o
    0x10002538   0x00000024   Code   RO          977    i.app_gap_read_ver_req_cmp_evt_handler  app_gap_task.o
    0x1000255c   0x00000018   Code   RO          978    i.app_gap_ready_evt_handler  app_gap_task.o
    0x10002574   0x0000000a   Code   RO          979    i.app_gap_reset_req_cmp_handler  app_gap_task.o
    0x1000257e   0x00000002   PAD
    0x10002580   0x00000024   Code   RO          867    i.app_gap_set_bondable_mode_req  app_gap.o
    0x100025a4   0x00000034   Code   RO          980    i.app_gap_set_devname_req_cmp_evt_handler  app_gap_task.o
    0x100025d8   0x00000094   Code   RO          981    i.app_gap_set_mode_req_cmp_evt_handler  app_gap_task.o
    0x1000266c   0x00000048   Code   RO          982    i.app_gap_set_privacy_req_cmp_handler  app_gap_task.o
    0x100026b4   0x00000030   Code   RO          983    i.app_gap_set_random_add_req_cmp_handler  app_gap_task.o
    0x100026e4   0x00000028   Code   RO          871    i.app_gap_set_sec_req  app_gap.o
    0x1000270c   0x00000024   Code   RO          984    i.app_gap_set_sec_req_cmp_evt_handler  app_gap_task.o
    0x10002730   0x00000028   Code   RO          985    i.app_gatt_resource_access_req_handler  app_gap_task.o
    0x10002758   0x00000040   Code   RO          590    i.app_get_bd_addr_by_conhdl  app_util.o
    0x10002798   0x0000000c   Code   RO          591    i.app_get_bond_nb   app_util.o
    0x100027a4   0x00000024   Code   RO          592    i.app_get_bond_status  app_util.o
    0x100027c8   0x00000078   Code   RO          383    i.app_get_celsius_temperature  usr_design.o
    0x10002840   0x00000028   Code   RO          594    i.app_get_conhdl_by_idx  app_util.o
    0x10002868   0x00000054   Code   RO          384    i.app_get_imeas_notify_data  usr_design.o
    0x100028bc   0x0000001c   Code   RO          595    i.app_get_link_status_by_idx  app_util.o
    0x100028d8   0x00000024   Code   RO          596    i.app_get_lk_sec_status  app_util.o
    0x100028fc   0x00000008   Code   RO          597    i.app_get_local_service_flag  app_util.o
    0x10002904   0x000000c0   Code   RO          385    i.app_get_meas_indicate_data  usr_design.o
    0x100029c4   0x0000000c   Code   RO          598    i.app_get_role      app_util.o
    0x100029d0   0x0000000a   Code   RO         1283    i.app_htpt_cfg_indntf_ind_handler  app_htpt_task.o
    0x100029da   0x00000002   PAD
    0x100029dc   0x00000028   Code   RO         1239    i.app_htpt_create_db  app_htpt.o
    0x10002a04   0x00000012   Code   RO         1284    i.app_htpt_create_db_cfm_handler  app_htpt_task.o
    0x10002a16   0x00000002   PAD
    0x10002a18   0x0000001c   Code   RO         1285    i.app_htpt_disable_ind_handler  app_htpt_task.o
    0x10002a34   0x00000040   Code   RO         1240    i.app_htpt_enable_req  app_htpt.o
    0x10002a74   0x00000028   Code   RO         1286    i.app_htpt_error_ind_handler  app_htpt_task.o
    0x10002a9c   0x00000068   Code   RO          386    i.app_htpt_idle_connection_timeout_timer_handler  usr_design.o
    0x10002b04   0x00000050   Code   RO         1287    i.app_htpt_meas_intv_chg_ind_handler  app_htpt_task.o
    0x10002b54   0x00000028   Code   RO         1241    i.app_htpt_measurement_intv_send  app_htpt.o
    0x10002b7c   0x00000098   Code   RO          387    i.app_htpt_period_meas_timer_handler  usr_design.o
    0x10002c14   0x00000030   Code   RO         1242    i.app_htpt_temp_send  app_htpt.o
    0x10002c44   0x0000000a   Code   RO         1288    i.app_htpt_temp_send_cfm_handler  app_htpt_task.o
    0x10002c4e   0x00000026   Code   RO          599    i.app_i_to_array    app_util.o
    0x10002c74   0x00000084   Code   RO          727    i.app_init          app_env.o
    0x10002cf8   0x0000001c   Code   RO          600    i.app_init_local_smp_key  app_util.o
    0x10002d14   0x00000060   Code   RO          388    i.app_interm_temp_notify  usr_design.o
    0x10002d74   0x00000018   Code   RO          389    i.app_interm_temp_stable_status_reset  usr_design.o
    0x10002d8c   0x0000006c   Code   RO          390    i.app_is_interm_temp_stable  usr_design.o
    0x10002df8   0x00000044   Code   RO          391    i.app_led_timer_handler  usr_design.o
    0x10002e3c   0x00000044   Code   RO          392    i.app_param_update  usr_design.o
    0x10002e80   0x00000084   Code   RO          393    i.app_send_stored_meas  usr_design.o
    0x10002f04   0x00000074   Code   RO          601    i.app_set_adv_data  app_util.o
    0x10002f78   0x00000038   Code   RO         1345    i.app_set_char_val_req  app_diss.o
    0x10002fb0   0x00000020   Code   RO          394    i.app_set_idle_connection  usr_design.o
    0x10002fd0   0x00000060   Code   RO          602    i.app_set_link_status_by_conhdl  app_util.o
    0x10003030   0x0000000c   Code   RO          603    i.app_set_role      app_util.o
    0x1000303c   0x00000088   Code   RO          604    i.app_set_scan_rsp_data  app_util.o
    0x100030c4   0x00000138   Code   RO          728    i.app_smp_init      app_env.o
    0x100031fc   0x00000048   Code   RO         1176    i.app_smpc_chk_bd_addr_req_ind_handler  app_smp_task.o
    0x10003244   0x00000040   Code   RO         1126    i.app_smpc_chk_bd_addr_req_rsp  app_smp.o
    0x10003284   0x000000b8   Code   RO         1177    i.app_smpc_irk_req_ind_handler  app_smp_task.o
    0x1000333c   0x0000004c   Code   RO         1127    i.app_smpc_irk_req_rsp  app_smp.o
    0x10003388   0x000000ac   Code   RO         1178    i.app_smpc_key_ind_handler  app_smp_task.o
    0x10003434   0x000000e4   Code   RO         1179    i.app_smpc_ltk_req_ind_handler  app_smp_task.o
    0x10003518   0x00000054   Code   RO         1128    i.app_smpc_ltk_req_rsp  app_smp.o
    0x1000356c   0x0000002c   Code   RO         1180    i.app_smpc_sec_started_ind_handler  app_smp_task.o
    0x10003598   0x00000044   Code   RO         1181    i.app_smpc_timeout_evt_handler  app_smp_task.o
    0x100035dc   0x00000084   Code   RO         1182    i.app_smpc_tk_req_ind_handler  app_smp_task.o
    0x10003660   0x0000003c   Code   RO         1130    i.app_smpc_tk_req_rsp  app_smp.o
    0x1000369c   0x00000024   Code   RO         1183    i.app_smpm_set_key_cfm_handler  app_smp_task.o
    0x100036c0   0x00000034   Code   RO         1131    i.app_smpm_set_key_req  app_smp.o
    0x100036f4   0x0000004c   Code   RO          395    i.app_start_adv     usr_design.o
    0x10003740   0x0000003c   Code   RO          396    i.app_store_meas_fifo_in  usr_design.o
    0x1000377c   0x0000000a   Code   RO         2142    i.app_sys_time_check_timer_handler  bletime.o
    0x10003786   0x00000002   PAD
    0x10003788   0x00000150   Code   RO          398    i.app_task_msg_hdl  usr_design.o
    0x100038d8   0x00000040   Code   RO          399    i.app_temp_meas_indicate  usr_design.o
    0x10003918   0x00000002   Code   RO          809    i.app_uart_init     app_sys.o
    0x1000391a   0x00000002   PAD
    0x1000391c   0x00000038   Code   RO           12    i.assert_err        app_main.o
    0x10003954   0x0000004c   Code   RO         2667    i.atts_req_error_ind_handler_patch  qn9020b2_lib_peripheral.lib(lib.o)
    0x100039a0   0x00000028   Code   RO         2669    i.ble_ext_wakeup_allow  qn9020b2_lib_peripheral.lib(lib.o)
    0x100039c8   0x00000012   Code   RO         2670    i.ble_hw_sleep      qn9020b2_lib_peripheral.lib(lib.o)
    0x100039da   0x00000002   PAD
    0x100039dc   0x00000110   Code   RO         2671    i.ble_init          qn9020b2_lib_peripheral.lib(lib.o)
    0x10003aec   0x00000030   Code   RO         2672    i.ble_sleep         qn9020b2_lib_peripheral.lib(lib.o)
    0x10003b1c   0x00000024   Code   RO         2589    i.button_init       button.o
    0x10003b40   0x0000000c   Code   RO         2673    i.cal_cal_SetCAL0WithMask  qn9020b2_lib_peripheral.lib(lib.o)
    0x10003b4c   0x0000000c   Code   RO         2674    i.cal_cal_SetCAL1WithMask  qn9020b2_lib_peripheral.lib(lib.o)
    0x10003b58   0x00000014   Code   RO         2675    i.check_ble_wakeup  qn9020b2_lib_peripheral.lib(lib.o)
    0x10003b6c   0x00000010   Code   RO         2676    i.co_buf_rx_get     qn9020b2_lib_peripheral.lib(lib.o)
    0x10003b7c   0x00000064   Code   RO         2677    i.config_work_mode  qn9020b2_lib_peripheral.lib(lib.o)
    0x10003be0   0x0000003c   Code   RO         2678    i.dc_dc_enable      qn9020b2_lib_peripheral.lib(lib.o)
    0x10003c1c   0x0000002c   Code   RO         2679    i.default_enter_sleep_cb  qn9020b2_lib_peripheral.lib(lib.o)
    0x10003c48   0x0000001c   Code   RO         2680    i.default_exit_sleep_cb  qn9020b2_lib_peripheral.lib(lib.o)
    0x10003c64   0x00000010   Code   RO         2681    i.delay             qn9020b2_lib_peripheral.lib(lib.o)
    0x10003c74   0x0000002a   Code   RO         1622    i.diss_check_val_len  diss.o
    0x10003c9e   0x00000026   Code   RO         1623    i.diss_compute_cfg_flag  diss.o
    0x10003cc4   0x00000074   Code   RO         1677    i.diss_create_db_req_handler  diss_task.o
    0x10003d38   0x00000040   Code   RO         1624    i.diss_disable      diss.o
    0x10003d78   0x0000004c   Code   RO         1678    i.diss_enable_req_handler  diss_task.o
    0x10003dc4   0x00000020   Code   RO         1625    i.diss_init         diss.o
    0x10003de4   0x00000054   Code   RO         1679    i.diss_set_char_val_req_handler  diss_task.o
    0x10003e38   0x00000014   Code   RO         2682    i.dp_dp_SetRegWithMask  qn9020b2_lib_peripheral.lib(lib.o)
    0x10003e4c   0x00000014   Code   RO         2770    i.dp_dp_SetRegWithMask  qn9020b2_lib_peripheral.lib(qnrf.o)
    0x10003e60   0x000000e4   Code   RO         1954    i.enter_sleep       sleep.o
    0x10003f44   0x00000020   Code   RO         2683    i.flash_on          qn9020b2_lib_peripheral.lib(lib.o)
    0x10003f64   0x00000002   Code   RO         2684    i.foo1              qn9020b2_lib_peripheral.lib(lib.o)
    0x10003f66   0x0000000a   Code   RO         2617    i.fputc             retarget.o
    0x10003f70   0x0000009c   Code   RO         2685    i.fw_ble_sleep      qn9020b2_lib_peripheral.lib(lib.o)
    0x1000400c   0x00000018   Code   RO         1546    i.gap_discon_cmp_evt_handler  htpt_task.o
    0x10004024   0x00000018   Code   RO         1680    i.gap_discon_cmp_evt_handler  diss_task.o
    0x1000403c   0x000000a4   Code   RO         2686    i.gap_discon_ind_handler_patch  qn9020b2_lib_peripheral.lib(lib.o)
    0x100040e0   0x0000000e   Code   RO         1547    i.gatt_handle_value_cfm_handler  htpt_task.o
    0x100040ee   0x0000000e   Code   RO         1548    i.gatt_notify_cmp_evt_handler  htpt_task.o
    0x100040fc   0x00000048   Code   RO         2687    i.gatt_read_char_req_handler_patch  qn9020b2_lib_peripheral.lib(lib.o)
    0x10004144   0x000000fc   Code   RO         2688    i.gatt_write_char_req_handler_patch  qn9020b2_lib_peripheral.lib(lib.o)
    0x10004240   0x00000150   Code   RO         1549    i.gatt_write_cmd_ind_handler  htpt_task.o
    0x10004390   0x00000030   Code   RO         2143    i.get_time_sec      bletime.o
    0x100043c0   0x0000000a   Code   RO         1843    i.gpio_enable_interrupt  gpio.o
    0x100043ca   0x00000002   PAD
    0x100043cc   0x0000001c   Code   RO         1844    i.gpio_init         gpio.o
    0x100043e8   0x00000010   Code   RO          400    i.gpio_interrupt_callback  usr_design.o
    0x100043f8   0x00000014   Code   RO         1846    i.gpio_read_pin     gpio.o
    0x1000440c   0x0000000c   Code   RO         1847    i.gpio_read_pin_field  gpio.o
    0x10004418   0x00000010   Code   RO         1848    i.gpio_set_direction  gpio.o
    0x10004428   0x0000000e   Code   RO         1849    i.gpio_set_direction_field  gpio.o
    0x10004436   0x0000001e   Code   RO         1851    i.gpio_sleep_allowed  gpio.o
    0x10004454   0x00000056   Code   RO         1853    i.gpio_wakeup_config  gpio.o
    0x100044aa   0x00000016   Code   RO         1854    i.gpio_write_pin    gpio.o
    0x100044c0   0x0000003c   Code   RO         1471    i.htpt_compute_att_table  htpt.o
    0x100044fc   0x00000110   Code   RO         1550    i.htpt_create_db_req_handler  htpt_task.o
    0x1000460c   0x00000098   Code   RO         1472    i.htpt_disable      htpt.o
    0x100046a4   0x0000011c   Code   RO         1551    i.htpt_enable_req_handler  htpt_task.o
    0x100047c0   0x00000018   Code   RO         1473    i.htpt_get_valid_rge_offset  htpt.o
    0x100047d8   0x00000020   Code   RO         1474    i.htpt_init         htpt.o
    0x100047f8   0x00000068   Code   RO         1552    i.htpt_meas_intv_upd_req_handler  htpt_task.o
    0x10004860   0x0000005c   Code   RO         1475    i.htpt_pack_temp_value  htpt.o
    0x100048bc   0x00000030   Code   RO         1476    i.htpt_temp_send_cfm_send  htpt.o
    0x100048ec   0x000000b4   Code   RO         1553    i.htpt_temp_send_req_handler  htpt_task.o
    0x100049a0   0x00000038   Code   RO         1554    i.htpt_temp_type_upd_req_handler  htpt_task.o
    0x100049d8   0x0000004c   Code   RO         2689    i.ke_schedule       qn9020b2_lib_peripheral.lib(lib.o)
    0x10004a24   0x00000028   Code   RO         2690    i.ke_time           qn9020b2_lib_peripheral.lib(lib.o)
    0x10004a4c   0x00000018   Code   RO         2691    i.ke_timer_empty    qn9020b2_lib_peripheral.lib(lib.o)
    0x10004a64   0x0000005c   Code   RO         2692    i.l2cc_data_packet_ind_handler_patch  qn9020b2_lib_peripheral.lib(lib.o)
    0x10004ac0   0x00000050   Code   RO         2693    i.l2cc_data_send_rsp_handler_patch  qn9020b2_lib_peripheral.lib(lib.o)
    0x10004b10   0x0000002e   Code   RO         2551    i.led_get           led.o
    0x10004b3e   0x00000038   Code   RO         2552    i.led_init          led.o
    0x10004b76   0x00000028   Code   RO         2554    i.led_set           led.o
    0x10004b9e   0x00000002   PAD
    0x10004ba0   0x0000003c   Code   RO         2694    i.lld_sleep_lpcycles_2_us  qn9020b2_lib_peripheral.lib(lib.o)
    0x10004bdc   0x0000013c   Code   RO           15    i.main              app_main.o
    0x10004d18   0x00000060   Code   RO         2695    i.nvds_copy         qn9020b2_lib_peripheral.lib(lib.o)
    0x10004d78   0x00000030   Code   RO         2696    i.nvds_erase        qn9020b2_lib_peripheral.lib(lib.o)
    0x10004da8   0x00000074   Code   RO         2698    i.nvds_restore_backup  qn9020b2_lib_peripheral.lib(lib.o)
    0x10004e1c   0x00000054   Code   RO         2699    i.nvds_write        qn9020b2_lib_peripheral.lib(lib.o)
    0x10004e70   0x000002f4   Code   RO         2700    i.plf_init          qn9020b2_lib_peripheral.lib(lib.o)
    0x10005164   0x00000010   Code   RO         2701    i.plf_reset_cb      qn9020b2_lib_peripheral.lib(lib.o)
    0x10005174   0x00000148   Code   RO         2702    i.powerup_calibration  qn9020b2_lib_peripheral.lib(lib.o)
    0x100052bc   0x0000003c   Code   RO         1411    i.prf_dispatch_disconnect  prf_utils.o
    0x100052f8   0x0000000c   Code   RO         1412    i.prf_init          prf_utils.o
    0x10005304   0x00000020   Code   RO         1413    i.prf_pack_date_time  prf_utils.o
    0x10005324   0x0000002c   Code   RO         1414    i.prf_server_error_ind_send  prf_utils.o
    0x10005350   0x00000034   Code   RO         2144    i.qn_time_get       bletime.o
    0x10005384   0x00000008   Code   RO         2145    i.qn_time_init      bletime.o
    0x1000538c   0x00000074   Code   RO         2146    i.qn_time_set       bletime.o
    0x10005400   0x00000054   Code   RO         2705    i.restore_ble_setting  qn9020b2_lib_peripheral.lib(lib.o)
    0x10005454   0x0000005c   Code   RO         2771    i.rf_enable         qn9020b2_lib_peripheral.lib(qnrf.o)
    0x100054b0   0x00000020   Code   RO         2772    i.rf_enable_sw_set_freq  qn9020b2_lib_peripheral.lib(qnrf.o)
    0x100054d0   0x00000024   Code   RO         2706    i.rwble_slot_2_lpcycles  qn9020b2_lib_peripheral.lib(lib.o)
    0x100054f4   0x00000010   Code   RO         2708    i.set_dbg_info      qn9020b2_lib_peripheral.lib(lib.o)
    0x10005504   0x00000014   Code   RO         2147    i.set_time_sec      bletime.o
    0x10005518   0x00000018   Code   RO         1956    i.sleep_cb          sleep.o
    0x10005530   0x00000038   Code   RO         1957    i.sleep_init        sleep.o
    0x10005568   0x0000005a   Code   RO         2709    i.sleep_post_process  qn9020b2_lib_peripheral.lib(lib.o)
    0x100055c2   0x00000002   PAD
    0x100055c4   0x0000002c   Code   RO          295    i.spi_clock_off     system.o
    0x100055f0   0x0000003c   Code   RO          401    i.start_measure_temperature  usr_design.o
    0x1000562c   0x0000000e   Code   RO         2233    i.syscon_SetADCCRWithMask  adc.o
    0x1000563a   0x0000000e   Code   RO         2328    i.syscon_SetAnalogCRWithMask  analog.o
    0x10005648   0x0000000c   Code   RO         1958    i.syscon_SetCMDCRWithMask  sleep.o
    0x10005654   0x0000000c   Code   RO         2047    i.syscon_SetCMDCRWithMask  syscon.o
    0x10005660   0x0000000e   Code   RO         2710    i.syscon_SetIvrefX32WithMask  qn9020b2_lib_peripheral.lib(lib.o)
    0x1000566e   0x0000000e   Code   RO         1959    i.syscon_SetPGCR0WithMask  sleep.o
    0x1000567c   0x0000000e   Code   RO         2711    i.syscon_SetPGCR1WithMask  qn9020b2_lib_peripheral.lib(lib.o)
    0x1000568a   0x0000000e   Code   RO         1960    i.syscon_SetPGCR2WithMask  sleep.o
    0x10005698   0x00000038   Code   RO         2052    i.syscon_set_ahb_clk  syscon.o
    0x100056d0   0x00000034   Code   RO         2053    i.syscon_set_apb_clk  syscon.o
    0x10005704   0x00000040   Code   RO         2054    i.syscon_set_ble_clk  syscon.o
    0x10005744   0x000000b8   Code   RO         2055    i.syscon_set_sysclk_src  syscon.o
    0x100057fc   0x0000002c   Code   RO         2056    i.syscon_set_timer_clk  syscon.o
    0x10005828   0x00000070   Code   RO         2057    i.syscon_set_usart_clk  syscon.o
    0x10005898   0x00000038   Code   RO          829    i.task_app_desc_register  app_task.o
    0x100058d0   0x00000038   Code   RO         1681    i.task_diss_desc_register  diss_task.o
    0x10005908   0x000000c4   Code   RO         2712    i.task_gatt_desc_register  qn9020b2_lib_peripheral.lib(lib.o)
    0x100059cc   0x00000038   Code   RO         1555    i.task_htpt_desc_register  htpt_task.o
    0x10005a04   0x00000054   Code   RO         2329    i.temp_sensor_enable  analog.o
    0x10005a58   0x0000004c   Code   RO         2148    i.time_check_trigger  bletime.o
    0x10005aa4   0x00000044   Code   RO          296    i.timer_clock_off   system.o
    0x10005ae8   0x00000038   Code   RO         1731    i.uart_check_tx_free  uart.o
    0x10005b20   0x0000002c   Code   RO          297    i.uart_clock_off    system.o
    0x10005b4c   0x00000080   Code   RO         1736    i.uart_init         uart.o
    0x10005bcc   0x00000038   Code   RO         1739    i.uart_tx_int_enable  uart.o
    0x10005c04   0x00000020   Code   RO          402    i.usr_button1_cb    usr_design.o
    0x10005c24   0x00000058   Code   RO          403    i.usr_init          usr_design.o
    0x10005c7c   0x00000054   Code   RO          404    i.usr_led1_set      usr_design.o
    0x10005cd0   0x00000058   Code   RO         1961    i.usr_sleep         sleep.o
    0x10005d28   0x0000002c   Code   RO          405    i.usr_sleep_restore  usr_design.o
    0x10005d54   0x00000068   Code   RO         1963    i.wakeup_by_sleep_timer  sleep.o
    0x10005dbc   0x00000020   Code   RO         2397    i.wdt_irq_clear     wdt.o
    0x10005ddc   0x00000008   Data   RO          406    .constdata          usr_design.o
    0x10005de4   0x00000148   Data   RO          830    .constdata          app_task.o
    0x10005f2c   0x00000030   Data   RO          831    .constdata          app_task.o
    0x10005f5c   0x0000009c   Data   RO         1478    .constdata          htpt.o
    0x10005ff8   0x00000002   Data   RO         1479    .constdata          htpt.o
    0x10005ffa   0x00000005   Data   RO         1480    .constdata          htpt.o
    0x10005fff   0x00000005   Data   RO         1481    .constdata          htpt.o
    0x10006004   0x00000005   Data   RO         1482    .constdata          htpt.o
    0x10006009   0x00000005   Data   RO         1483    .constdata          htpt.o
    0x1000600e   0x00000002   PAD
    0x10006010   0x00000008   Data   RO         1556    .constdata          htpt_task.o
    0x10006018   0x00000010   Data   RO         1557    .constdata          htpt_task.o
    0x10006028   0x00000030   Data   RO         1558    .constdata          htpt_task.o
    0x10006058   0x00000008   Data   RO         1559    .constdata          htpt_task.o
    0x10006060   0x00000020   Data   RO         1560    .constdata          htpt_task.o
    0x10006080   0x000000e4   Data   RO         1627    .constdata          diss.o
    0x10006164   0x00000002   Data   RO         1628    .constdata          diss.o
    0x10006166   0x00000005   Data   RO         1629    .constdata          diss.o
    0x1000616b   0x00000005   Data   RO         1630    .constdata          diss.o
    0x10006170   0x00000005   Data   RO         1631    .constdata          diss.o
    0x10006175   0x00000005   Data   RO         1632    .constdata          diss.o
    0x1000617a   0x00000005   Data   RO         1633    .constdata          diss.o
    0x1000617f   0x00000005   Data   RO         1634    .constdata          diss.o
    0x10006184   0x00000005   Data   RO         1635    .constdata          diss.o
    0x10006189   0x00000005   Data   RO         1636    .constdata          diss.o
    0x1000618e   0x00000005   Data   RO         1637    .constdata          diss.o
    0x10006193   0x00000001   PAD
    0x10006194   0x00000008   Data   RO         1682    .constdata          diss_task.o
    0x1000619c   0x00000010   Data   RO         1683    .constdata          diss_task.o
    0x100061ac   0x00000008   Data   RO         1684    .constdata          diss_task.o
    0x100061b4   0x00000020   Data   RO         1685    .constdata          diss_task.o
    0x100061d4   0x00000033   Data   RO         1742    .constdata          uart.o
    0x10006207   0x00000001   PAD
    0x10006208   0x00000010   Data   RO         2714    .constdata          qn9020b2_lib_peripheral.lib(lib.o)
    0x10006218   0x0000000c   Data   RO         2802    .constdata          mc_p.l(mktime.o)
    0x10006224   0x0000000c   Data   RO         3111    .constdata          mc_p.l(localtime_i.o)
    0x10006230   0x00000081   Data   RO         3134    .constdata          mc_p.l(ctype_o.o)
    0x100062b1   0x00000003   PAD
    0x100062b4   0x00000004   Data   RO         3135    .constdata          mc_p.l(ctype_o.o)
    0x100062b8   0x000000d6   Data   RO          986    .conststring        app_gap_task.o
    0x1000638e   0x00000002   PAD
    0x10006390   0x000000ad   Data   RO         1184    .conststring        app_smp_task.o
    0x1000643d   0x00000003   PAD
    0x10006440   0x00000030   Data   RO         3165    Region$$Table       anon$$obj.o
    0x10006470   0x00000224   Data   RW          407    .data               usr_design.o
    0x10006694   0x00000002   Data   RW          832    .data               app_task.o
    0x10006696   0x00000002   PAD
    0x10006698   0x00000004   Data   RW         1289    .data               app_htpt_task.o
    0x1000669c   0x00000004   Data   RW         1377    .data               app_diss_task.o
    0x100066a0   0x00000002   Data   RW         1561    .data               htpt_task.o
    0x100066a2   0x00000002   Data   RW         1686    .data               diss_task.o
    0x100066a4   0x00000004   Data   RW         1856    .data               gpio.o
    0x100066a8   0x0000001c   Data   RW         1964    .data               sleep.o
    0x100066c4   0x0000000c   Data   RW         2058    .data               syscon.o
    0x100066d0   0x00000008   Data   RW         2149    .data               bletime.o
    0x100066d8   0x0000000c   Data   RW         2235    .data               adc.o
    0x100066e4   0x0000000c   Data   RW         2330    .data               analog.o
    0x100066f0   0x00000004   Data   RW         2401    .data               wdt.o
    0x100066f4   0x00000020   Data   RW         2465    .data               timer.o
    0x10006714   0x00000004   Data   RW         2618    .data               retarget.o
    0x10006718   0x00000020   Data   RW         2715    .data               qn9020b2_lib_peripheral.lib(lib.o)
    0x10006738   0x00000004   Data   RW         2795    .data               mc_p.l(rand.o)
    0x1000673c   0x00000004   Data   RW         3116    .data               mc_p.l(errno.o)
    0x10006740   0x00000708   Zero   RW           16    .bss                app_main.o
    0x10006e48   0x000000fc   Zero   RW          729    .bss                app_env.o
    0x10006f44   0x0000000e   Zero   RW         1477    .bss                htpt.o
    0x10006f52   0x00000012   Zero   RW         1626    .bss                diss.o
    0x10006f64   0x00000030   Zero   RW         1741    .bss                uart.o
    0x10006f94   0x00000014   Zero   RW         2234    .bss                adc.o
    0x10006fa8   0x000003a0   Zero   RW         2713    .bss                qn9020b2_lib_peripheral.lib(lib.o)
    0x10007348   0x0000002c   Zero   RW         3108    .bss                mc_p.l(localtime_w.o)
    0x10007374   0x00000004   PAD
    0x10007378   0x00000200   Zero   RW            1    STACK               startup.o


==============================================================================

Image component sizes


      Code (inc. data)   RO Data    RW Data    ZI Data      Debug   Object Name

       886        108          0         12         20      22332   adc.o
       130         24          0         12          0      16141   analog.o
       128         26          0          0          0       1946   app_diss.o
       276         88          0          4          0       2597   app_diss_task.o
       444         96          0          0        252       3793   app_env.o
       440         86          0          0          0       5142   app_gap.o
      1368        544        214          0          0      11434   app_gap_task.o
       192         36          0          0          0       2733   app_htpt.o
       186         74          0          4          0       4884   app_htpt_task.o
       372         76          0          0       1800      96900   app_main.o
       336         48          0          0          0       3294   app_smp.o
       936        242        173          0          0       5659   app_smp_task.o
         2          0          0          0          0        412   app_sys.o
        56         12        376          2          0       1253   app_task.o
       906        132          0          0          0      10774   app_util.o
       330         48          0          8          0       5417   bletime.o
        36          0          0          0          0        454   button.o
       176         28        275          0         18       5062   diss.o
       356         76         64          2          0       5010   diss_task.o
       278         12          0          4          0      22321   gpio.o
       408         50        178          0         14       7378   htpt.o
      1340        148        112          2          0       9749   htpt_task.o
       142         16          0          0          0       1499   led.o
       148         14          0          0          0       3834   prf_utils.o
        10          0          0          4          0       2326   retarget.o
       560         76          0         28          0      28438   sleep.o
        48         14        192          0        512        832   startup.o
       524         82          0         12          0      19339   syscon.o
       432         92          0          0          0      29599   system.o
       208         32          0         32          0      18398   timer.o
       424         70         51          0         48      29227   uart.o
      2596        692          8        548          0      35944   usr_design.o
        56         20          0          4          0       1550   wdt.o

    ----------------------------------------------------------------------
     14744       3062       1700        680       2664     415671   Object Totals
         0          0         48          0          0          0   (incl. Generated)
        14          0          9          2          0          0   (incl. Padding)

    ----------------------------------------------------------------------

      Code (inc. data)   RO Data    RW Data    ZI Data      Debug   Library Member Name

        58          0          0          0          0          0   __dczerorl.o
        30          0          0          0          0         60   _chval.o
       166          0          0          0          0         84   _strtoul.o
        26          0          0          0          0         72   atoi.o
         8          4        133          0          0         60   ctype_o.o
         0          0          0          0          0          0   entry.o
         0          0          0          0          0          0   entry10a.o
         0          0          0          0          0          0   entry11a.o
         8          4          0          0          0          0   entry2.o
         4          0          0          0          0          0   entry5.o
         0          0          0          0          0          0   entry7b.o
         0          0          0          0          0          0   entry8b.o
         8          4          0          0          0          0   entry9a.o
         8          4          0          4          0         60   errno.o
        30          0          0          0          0          0   handlers.o
        40          0          0          0          0         72   idiv.o
        36          8          0          0          0         68   init.o
         0          0          0          0          0          0   iusefp.o
        32          0          0          0          0         68   llshl.o
        38          0          0          0          0         68   llsshr.o
        34          0          0          0          0         68   llushr.o
       116         12         12          0          0         72   localtime_i.o
        16          6          0          0         44         68   localtime_w.o
        26          0          0          0          0         72   memcmp.o
        36          0          0          0          0         60   memcpya.o
        36          0          0          0          0        100   memseta.o
       140         16         12          0          0         72   mktime.o
      2224         98          0          0          0        412   printfa.o
        36         12          0          4          0        120   rand.o
        18          0          0          0          0         60   strcpy.o
       112          4          0          0          0         76   strtol.o
        44          0          0          0          0         72   uidiv.o
        20          0          0          0          0         60   uread4.o
        40          2          0          0          0         68   cdrcmple.o
       356          4          0          0          0        140   dadd.o
       240          6          0          0          0         84   ddiv.o
       236          0          0          0          0        216   depilogue.o
        72         10          0          0          0         72   dfixi.o
        64         10          0          0          0         68   dfixul.o
        40          6          0          0          0         68   dflti.o
       208          6          0          0          0         88   dmul.o
      3898        716         16         32        928       2928   lib.o
       430          0          0          0          0        116   math.o
       144         10          0          0          0        204   qnrf.o

    ----------------------------------------------------------------------
      9092        942        176         40        976       5976   Library Totals
        14          0          3          0          4          0   (incl. Padding)

    ----------------------------------------------------------------------

      Code (inc. data)   RO Data    RW Data    ZI Data      Debug   Library Name

      3350        172        157          8         44       1924   mc_p.l
      1256         44          0          0          0        804   mf_p.l
      4472        726         16         32        928       3248   qn9020b2_lib_peripheral.lib

    ----------------------------------------------------------------------
      9092        942        176         40        976       5976   Library Totals

    ----------------------------------------------------------------------

==============================================================================


      Code (inc. data)   RO Data    RW Data    ZI Data      Debug   

     23836       4004       1876        720       3640     409535   Grand Totals
     23836       4004       1876         68       3640     409535   ELF Image Totals (compressed)
     23836       4004       1876         68          0          0   ROM Totals

==============================================================================

    Total RO  Size (Code + RO Data)                25712 (  25.11kB)
    Total RW  Size (RW Data + ZI Data)              4360 (   4.26kB)
    Total ROM Size (Code + RO Data + RW Data)      25780 (  25.18kB)

==============================================================================

